{
   <insert_a_suppression_name_here>
   Memcheck:Leak
   match-leak-kinds: reachable
   fun:malloc
   fun:update_temp_buf
   fun:get_next_line
   fun:read_user_input
   fun:run_interactive_mode
   fun:main
}
{
   <insert_a_suppression_name_here>
   Memcheck:Leak
   match-leak-kinds: reachable
   fun:malloc
   fun:ft_strtrim
   fun:read_user_input
   fun:run_interactive_mode
   fun:main
}
{
   <insert_a_suppression_name_here>
   Memcheck:Leak
   match-leak-kinds: reachable
   fun:malloc
   fun:set_locale_var
   fun:set_default_lang
   fun:main
}
{
   <insert_a_suppression_name_here>
   Memcheck:Leak
   match-leak-kinds: reachable
   fun:malloc
   fun:fd_to_buffered_stream
   fun:with_input_from_buffered_stream
   fun:main
}
{
   <insert_a_suppression_name_here>
   Memcheck:Leak
   match-leak-kinds: reachable
   fun:malloc
   fun:make_variable_value
   obj:/usr/bin/bash
   fun:adjust_shell_level
   fun:initialize_shell_variables
   obj:/usr/bin/bash
   fun:main
}
{
   <insert_a_suppression_name_here>
   Memcheck:Leak
   match-leak-kinds: reachable
   fun:malloc
   fun:make_variable_value
   obj:/usr/bin/bash
   fun:initialize_shell_variables
   obj:/usr/bin/bash
   fun:main
}
{
   <insert_a_suppression_name_here>
   Memcheck:Leak
   match-leak-kinds: reachable
   fun:malloc
   fun:array_create_element
   fun:array_insert
   fun:initialize_shell_variables
   obj:/usr/bin/bash
   fun:main
}
{
   <insert_a_suppression_name_here>
   Memcheck:Leak
   match-leak-kinds: reachable
   fun:malloc
   obj:/usr/bin/bash
   obj:/usr/bin/bash
   obj:/usr/bin/bash
   fun:initialize_shell_variables
   obj:/usr/bin/bash
   fun:main
}
{
   <insert_a_suppression_name_here>
   Memcheck:Leak
   match-leak-kinds: reachable
   fun:malloc
   obj:/usr/bin/bash
   obj:/usr/bin/bash
   fun:initialize_shell_variables
   obj:/usr/bin/bash
   fun:main
}
{
   <insert_a_suppression_name_here>
   Memcheck:Leak
   match-leak-kinds: reachable
   fun:malloc
   obj:/usr/bin/bash
   obj:/usr/bin/bash
   obj:/usr/bin/bash
   fun:set_ppid
   fun:initialize_shell_variables
   obj:/usr/bin/bash
   fun:main
}
{
   <insert_a_suppression_name_here>
   Memcheck:Leak
   match-leak-kinds: reachable
   fun:malloc
   obj:/usr/bin/bash
   obj:/usr/bin/bash
   fun:set_ppid
   fun:initialize_shell_variables
   obj:/usr/bin/bash
   fun:main
}
{
   <insert_a_suppression_name_here>
   Memcheck:Leak
   match-leak-kinds: reachable
   fun:malloc
   fun:make_variable_value
   obj:/usr/bin/bash
   fun:set_ppid
   fun:initialize_shell_variables
   obj:/usr/bin/bash
   fun:main
}
{
   <insert_a_suppression_name_here>
   Memcheck:Leak
   match-leak-kinds: reachable
   fun:malloc
   obj:/usr/bin/bash
   fun:initialize_shell_variables
   obj:/usr/bin/bash
   fun:main
}
{
   <insert_a_suppression_name_here>
   Memcheck:Leak
   match-leak-kinds: reachable
   fun:malloc
   fun:set_default_locale
   fun:main
}
{
   <insert_a_suppression_name_here>
   Memcheck:Leak
   match-leak-kinds: reachable
   fun:malloc
   obj:/usr/bin/bash
   obj:/usr/bin/bash
   obj:/usr/bin/bash
   fun:set_locale_var
   fun:set_default_lang
   fun:main
}
{
   <insert_a_suppression_name_here>
   Memcheck:Leak
   match-leak-kinds: reachable
   fun:malloc
   fun:set_lang
   fun:main
}
{
   <insert_a_suppression_name_here>
   Memcheck:Leak
   match-leak-kinds: reachable
   fun:malloc
   obj:/usr/bin/bash
   obj:/usr/bin/bash
   obj:/usr/bin/bash
   fun:set_bashopts
   obj:/usr/bin/bash
   fun:main
}
{
   <insert_a_suppression_name_here>
   Memcheck:Leak
   match-leak-kinds: reachable
   fun:malloc
   obj:/usr/bin/bash
   obj:/usr/bin/bash
   fun:set_bashopts
   obj:/usr/bin/bash
   fun:main
}
{
   <insert_a_suppression_name_here>
   Memcheck:Leak
   match-leak-kinds: reachable
   fun:malloc
   obj:/usr/bin/bash
   obj:/usr/bin/bash
   obj:/usr/bin/bash
   fun:set_shellopts
   obj:/usr/bin/bash
   fun:main
}
{
   <insert_a_suppression_name_here>
   Memcheck:Leak
   match-leak-kinds: reachable
   fun:malloc
   obj:/usr/bin/bash
   obj:/usr/bin/bash
   fun:set_shellopts
   obj:/usr/bin/bash
   fun:main
}
{
   <insert_a_suppression_name_here>
   Memcheck:Leak
   match-leak-kinds: reachable
   fun:malloc
   fun:xmalloc
   obj:/usr/bin/bash
   fun:main
}
{
   <insert_a_suppression_name_here>
   Memcheck:Leak
   match-leak-kinds: reachable
   fun:malloc
   fun:xmalloc
   fun:main
}
{
   <insert_a_suppression_name_here>
   Memcheck:Leak
   match-leak-kinds: reachable
   fun:malloc
   fun:init_yy_io
   fun:main
}
{
   <insert_a_suppression_name_here>
   Memcheck:Leak
   match-leak-kinds: reachable
   fun:malloc
   obj:/usr/bin/bash
   obj:/usr/bin/bash
   fun:main
}
{
   <insert_a_suppression_name_here>
   Memcheck:Leak
   match-leak-kinds: reachable
   fun:malloc
   fun:hash_create
   obj:/usr/bin/bash
   fun:initialize_shell_variables
   obj:/usr/bin/bash
   fun:main
}
{
   <insert_a_suppression_name_here>
   Memcheck:Leak
   match-leak-kinds: reachable
   fun:malloc
   fun:hash_create
   fun:initialize_shell_variables
   obj:/usr/bin/bash
   fun:main
}
{
   <insert_a_suppression_name_here>
   Memcheck:Leak
   match-leak-kinds: reachable
   fun:malloc
   fun:set_working_directory
   fun:set_pwd
   fun:initialize_shell_variables
   obj:/usr/bin/bash
   fun:main
}
{
   <insert_a_suppression_name_here>
   Memcheck:Leak
   match-leak-kinds: reachable
   fun:malloc
   fun:hash_insert
   obj:/usr/bin/bash
   obj:/usr/bin/bash
   fun:initialize_shell_variables
   obj:/usr/bin/bash
   fun:main
}
{
   <insert_a_suppression_name_here>
   Memcheck:Leak
   match-leak-kinds: reachable
   fun:malloc
   fun:hash_insert
   obj:/usr/bin/bash
   obj:/usr/bin/bash
   fun:set_ppid
   fun:initialize_shell_variables
   obj:/usr/bin/bash
   fun:main
}
{
   <insert_a_suppression_name_here>
   Memcheck:Leak
   match-leak-kinds: reachable
   fun:malloc
   fun:hash_insert
   obj:/usr/bin/bash
   fun:initialize_shell_variables
   obj:/usr/bin/bash
   fun:main
}
{
   <insert_a_suppression_name_here>
   Memcheck:Leak
   match-leak-kinds: reachable
   fun:malloc
   fun:array_create
   fun:initialize_shell_variables
   obj:/usr/bin/bash
   fun:main
}
{
   <insert_a_suppression_name_here>
   Memcheck:Leak
   match-leak-kinds: reachable
   fun:malloc
   fun:hash_insert
   obj:/usr/bin/bash
   obj:/usr/bin/bash
   fun:set_shellopts
   obj:/usr/bin/bash
   fun:main
}
{
   <insert_a_suppression_name_here>
   Memcheck:Leak
   match-leak-kinds: reachable
   fun:malloc
   fun:hash_insert
   obj:/usr/bin/bash
   obj:/usr/bin/bash
   fun:set_bashopts
   obj:/usr/bin/bash
   fun:main
}
{
   <insert_a_suppression_name_here>
   Memcheck:Leak
   match-leak-kinds: reachable
   fun:malloc
   fun:make_variable_value
   obj:/usr/bin/bash
   fun:set_shellopts
   obj:/usr/bin/bash
   fun:main
}
{
   <insert_a_suppression_name_here>
   Memcheck:Leak
   match-leak-kinds: reachable
   fun:malloc
   fun:make_variable_value
   obj:/usr/bin/bash
   fun:set_bashopts
   obj:/usr/bin/bash
   fun:main
}
{
   <insert_a_suppression_name_here>
   Memcheck:Leak
   match-leak-kinds: reachable
   fun:malloc
   obj:/usr/bin/bash
   fun:fd_to_buffered_stream
   fun:with_input_from_buffered_stream
   fun:main
}
{
   <insert_a_suppression_name_here>
   Memcheck:Leak
   match-leak-kinds: reachable
   fun:malloc
   obj:/usr/bin/bash
   obj:/usr/bin/bash
   fun:yyparse
   fun:parse_command
   fun:read_command
   fun:reader_loop
   fun:main
}
{
   <insert_a_suppression_name_here>
   Memcheck:Leak
   match-leak-kinds: reachable
   fun:malloc
   obj:/usr/bin/bash
   obj:/usr/bin/bash
   fun:set_locale_var
   fun:set_default_lang
   fun:main
}
{
   <insert_a_suppression_name_here>
   Memcheck:Leak
   match-leak-kinds: reachable
   fun:malloc
   fun:cmd_init
   fun:main
}
{
   <insert_a_suppression_name_here>
   Memcheck:Leak
   match-leak-kinds: reachable
   fun:malloc
   fun:uwp_init
   fun:main
}
{
   <insert_a_suppression_name_here>
   Memcheck:Leak
   match-leak-kinds: reachable
   fun:malloc
   fun:initialize_shell_variables
   obj:/usr/bin/bash
   fun:main
}
{
   <insert_a_suppression_name_here>
   Memcheck:Leak
   match-leak-kinds: reachable
   fun:malloc
   obj:/usr/bin/ls
   obj:/usr/bin/ls
   obj:/usr/bin/ls
   fun:(below main)
}
{
   <insert_a_suppression_name_here>
   Memcheck:Leak
   match-leak-kinds: reachable
   fun:malloc
   obj:/usr/bin/ls
   obj:/usr/bin/ls
   fun:(below main)
}
{
   <insert_a_suppression_name_here>
   Memcheck:Leak
   match-leak-kinds: reachable
   fun:malloc
   obj:/usr/bin/ls
   obj:/usr/bin/ls
   obj:/usr/bin/ls
   obj:/usr/bin/ls
   fun:(below main)
}
{
   <insert_a_suppression_name_here>
   Memcheck:Leak
   match-leak-kinds: indirect
   fun:malloc
   fun:re_node_set_init_copy
   fun:create_cd_newstate
   fun:re_acquire_state_context
   fun:create_initial_state
   fun:re_compile_internal
   fun:re_compile_pattern
   obj:/usr/bin/grep
   obj:/usr/bin/grep
   obj:/usr/bin/grep
   fun:(below main)
}
{
   <insert_a_suppression_name_here>
   Memcheck:Leak
   match-leak-kinds: indirect
   fun:malloc
   fun:re_node_set_alloc
   fun:register_state
   fun:create_cd_newstate
   fun:re_acquire_state_context
   fun:create_initial_state
   fun:re_compile_internal
   fun:re_compile_pattern
   obj:/usr/bin/grep
   obj:/usr/bin/grep
   obj:/usr/bin/grep
   fun:(below main)
}
{
   <insert_a_suppression_name_here>
   Memcheck:Leak
   match-leak-kinds: reachable
   fun:malloc
   obj:/usr/bin/grep
   obj:/usr/bin/grep
   fun:(below main)
}
{
   <insert_a_suppression_name_here>
   Memcheck:Leak
   match-leak-kinds: reachable
   fun:malloc
   obj:/usr/bin/grep
   obj:/usr/bin/grep
   obj:/usr/bin/grep
   obj:/usr/bin/grep
   fun:(below main)
}
{
   <insert_a_suppression_name_here>
   Memcheck:Leak
   match-leak-kinds: indirect
   fun:malloc
   fun:register_state
   fun:create_cd_newstate
   fun:re_acquire_state_context
   fun:create_initial_state
   fun:re_compile_internal
   fun:re_compile_pattern
   obj:/usr/bin/grep
   obj:/usr/bin/grep
   obj:/usr/bin/grep
   fun:(below main)
}
{
   <insert_a_suppression_name_here>
   Memcheck:Leak
   match-leak-kinds: indirect
   fun:malloc
   fun:analyze
   fun:re_compile_internal
   fun:re_compile_pattern
   obj:/usr/bin/grep
   obj:/usr/bin/grep
   obj:/usr/bin/grep
   fun:(below main)
}
{
   <insert_a_suppression_name_here>
   Memcheck:Leak
   match-leak-kinds: indirect
   fun:malloc
   fun:re_node_set_alloc
   fun:calc_eclosure_iter
   fun:calc_eclosure
   fun:analyze
   fun:re_compile_internal
   fun:re_compile_pattern
   obj:/usr/bin/grep
   obj:/usr/bin/grep
   obj:/usr/bin/grep
   fun:(below main)
}
{
   <insert_a_suppression_name_here>
   Memcheck:Leak
   match-leak-kinds: reachable
   fun:calloc
   obj:/usr/bin/grep
   obj:/usr/bin/grep
   fun:(below main)
}
{
   <insert_a_suppression_name_here>
   Memcheck:Leak
   match-leak-kinds: indirect
   fun:calloc
   fun:create_cd_newstate
   fun:re_acquire_state_context
   fun:create_initial_state
   fun:re_compile_internal
   fun:re_compile_pattern
   obj:/usr/bin/grep
   obj:/usr/bin/grep
   obj:/usr/bin/grep
   fun:(below main)
}
{
   <insert_a_suppression_name_here>
   Memcheck:Leak
   match-leak-kinds: reachable
   fun:calloc
   obj:/usr/bin/grep
   obj:/usr/bin/grep
   obj:/usr/bin/grep
   fun:(below main)
}
{
   <insert_a_suppression_name_here>
   Memcheck:Leak
   match-leak-kinds: possible
   fun:realloc
   obj:/usr/bin/grep
   obj:/usr/bin/grep
   fun:(below main)
}
{
   <insert_a_suppression_name_here>
   Memcheck:Leak
   match-leak-kinds: indirect
   fun:malloc
   fun:init_dfa
   fun:re_compile_internal
   fun:re_compile_pattern
   obj:/usr/bin/grep
   obj:/usr/bin/grep
   obj:/usr/bin/grep
   fun:(below main)
}
{
   <insert_a_suppression_name_here>
   Memcheck:Leak
   match-leak-kinds: indirect
   fun:calloc
   fun:init_dfa
   fun:re_compile_internal
   fun:re_compile_pattern
   obj:/usr/bin/grep
   obj:/usr/bin/grep
   obj:/usr/bin/grep
   fun:(below main)
}
{
   <insert_a_suppression_name_here>
   Memcheck:Leak
   match-leak-kinds: reachable
   fun:realloc
   obj:/usr/bin/grep
   obj:/usr/bin/grep
   obj:/usr/bin/grep
   fun:(below main)
}
{
   <insert_a_suppression_name_here>
   Memcheck:Leak
   match-leak-kinds: definite
   fun:malloc
   fun:re_compile_internal
   fun:re_compile_pattern
   obj:/usr/bin/grep
   obj:/usr/bin/grep
   obj:/usr/bin/grep
   fun:(below main)
}
{
   <insert_a_suppression_name_here>
   Memcheck:Leak
   match-leak-kinds: reachable
   fun:malloc
   obj:/usr/bin/grep
   obj:/usr/bin/grep
   obj:/usr/bin/grep
   fun:(below main)
}
{
   <insert_a_suppression_name_here>
   Memcheck:Leak
   match-leak-kinds: reachable
   fun:malloc
   obj:/usr/bin/grep
   obj:/usr/bin/grep
   obj:/usr/bin/grep
   obj:/usr/bin/grep
   obj:/usr/bin/grep
   fun:(below main)
}
{
   <insert_a_suppression_name_here>
   Memcheck:Leak
   match-leak-kinds: reachable
   fun:realloc
   obj:/usr/bin/grep
   obj:/usr/bin/grep
   obj:/usr/bin/grep
   obj:/usr/bin/grep
   fun:(below main)
}
{
   <insert_a_suppression_name_here>
   Memcheck:Leak
   match-leak-kinds: reachable
   fun:realloc
   obj:/usr/bin/grep
   obj:/usr/bin/grep
   obj:/usr/bin/grep
   obj:/usr/bin/grep
   obj:/usr/bin/grep
   obj:/usr/bin/grep
   fun:(below main)
}
{
   <insert_a_suppression_name_here>
   Memcheck:Leak
   match-leak-kinds: definite
   fun:malloc
   obj:/usr/bin/sort
   obj:/usr/bin/sort
   fun:(below main)
}
{
   <insert_a_suppression_name_here>
   Memcheck:Leak
   match-leak-kinds: reachable
   fun:malloc
   obj:/usr/bin/sort
   fun:(below main)
}
{
   <insert_a_suppression_name_here>
   Memcheck:Leak
   match-leak-kinds: reachable
   fun:malloc
   obj:/usr/bin/sort
   obj:/usr/bin/sort
   fun:(below main)
}
{
   <insert_a_suppression_name_here>
   Memcheck:Leak
   match-leak-kinds: indirect
   fun:malloc
   obj:/usr/bin/sort
   fun:(below main)
}
{
   <insert_a_suppression_name_here>
   Memcheck:Leak
   match-leak-kinds: definite
   fun:malloc
   obj:/usr/bin/sort
   fun:(below main)
}
{
   <insert_a_suppression_name_here>
   Memcheck:Leak
   match-leak-kinds: indirect
   fun:malloc
   fun:re_node_set_init_1
   fun:link_nfa_nodes
   fun:preorder
   fun:analyze
   fun:re_compile_internal
   fun:re_compile_pattern
   obj:/usr/bin/grep
   obj:/usr/bin/grep
   obj:/usr/bin/grep
   fun:(below main)
}
{
   <insert_a_suppression_name_here>
   Memcheck:Leak
   match-leak-kinds: indirect
   fun:malloc
   fun:re_node_set_alloc
   fun:calc_eclosure_iter
   fun:calc_eclosure_iter
   fun:calc_eclosure
   fun:analyze
   fun:re_compile_internal
   fun:re_compile_pattern
   obj:/usr/bin/grep
   obj:/usr/bin/grep
   obj:/usr/bin/grep
   fun:(below main)
}
{
   <insert_a_suppression_name_here>
   Memcheck:Leak
   match-leak-kinds: indirect
   fun:malloc
   fun:create_cd_newstate
   fun:re_acquire_state_context
   fun:create_initial_state
   fun:re_compile_internal
   fun:re_compile_pattern
   obj:/usr/bin/grep
   obj:/usr/bin/grep
   obj:/usr/bin/grep
   fun:(below main)
}
{
   <insert_a_suppression_name_here>
   Memcheck:Leak
   match-leak-kinds: indirect
   fun:realloc
   fun:re_dfa_add_node
   fun:duplicate_node
   fun:duplicate_node_closure
   fun:calc_eclosure_iter
   fun:calc_eclosure
   fun:analyze
   fun:re_compile_internal
   fun:re_compile_pattern
   obj:/usr/bin/grep
   obj:/usr/bin/grep
   obj:/usr/bin/grep
   fun:(below main)
}
{
   <insert_a_suppression_name_here>
   Memcheck:Leak
   match-leak-kinds: indirect
   fun:realloc
   fun:re_node_set_merge
   fun:calc_eclosure_iter
   fun:calc_eclosure
   fun:analyze
   fun:re_compile_internal
   fun:re_compile_pattern
   obj:/usr/bin/grep
   obj:/usr/bin/grep
   obj:/usr/bin/grep
   fun:(below main)
}
{
   <insert_a_suppression_name_here>
   Memcheck:Leak
   match-leak-kinds: reachable
   fun:calloc
   obj:/usr/sbin/ifconfig
   obj:/usr/sbin/ifconfig
   obj:/usr/sbin/ifconfig
   obj:/usr/sbin/ifconfig
   fun:(below main)
}
{
   <insert_a_suppression_name_here>
   Memcheck:Leak
   match-leak-kinds: reachable
   fun:calloc
   obj:/usr/bin/env
   fun:(below main)
}
{
   <insert_a_suppression_name_here>
   Memcheck:Leak
   match-leak-kinds: reachable
   fun:malloc
   obj:/usr/bin/ls
   obj:/usr/bin/ls
   obj:/usr/bin/ls
   obj:/usr/bin/ls
   obj:/usr/bin/ls
   fun:(below main)
}
{
   <insert_a_suppression_name_here>
   Memcheck:Leak
   match-leak-kinds: possible
   fun:malloc
   obj:/usr/bin/grep
   obj:/usr/bin/grep
   obj:/usr/bin/grep
   obj:/usr/bin/grep
   fun:(below main)
}
{
   <insert_a_suppression_name_here>
   Memcheck:Leak
   match-leak-kinds: reachable
   fun:realloc
   obj:/usr/bin/grep
   obj:/usr/bin/grep
   obj:/usr/bin/grep
   obj:/usr/bin/grep
   obj:/usr/bin/grep
   fun:(below main)
}
{
   <insert_a_suppression_name_here>
   Memcheck:Leak
   match-leak-kinds: reachable
   fun:malloc
   obj:/usr/bin/grep
   obj:/usr/bin/grep
   obj:/usr/bin/grep
   obj:/usr/bin/grep
   obj:/usr/bin/grep
   obj:/usr/bin/grep
   fun:(below main)
}
{
   <insert_a_suppression_name_here>
   Memcheck:Leak
   match-leak-kinds: reachable
   fun:malloc
   fun:xmalloc
   obj:/usr/bin/x86_64-linux-gnu-as
   obj:/usr/bin/x86_64-linux-gnu-as
   fun:(below main)
}
{
   <insert_a_suppression_name_here>
   Memcheck:Leak
   match-leak-kinds: possible
   fun:malloc
   fun:objalloc_create
   obj:/usr/lib/x86_64-linux-gnu/libbfd-2.38-system.so
   fun:bfd_openw
   obj:/usr/bin/x86_64-linux-gnu-as
   fun:(below main)
}
{
   <insert_a_suppression_name_here>
   Memcheck:Leak
   match-leak-kinds: possible
   fun:malloc
   fun:objalloc_create
   fun:bfd_hash_table_init_n
   obj:/usr/lib/x86_64-linux-gnu/libbfd-2.38-system.so
   fun:bfd_openw
   obj:/usr/bin/x86_64-linux-gnu-as
   fun:(below main)
}
{
   <insert_a_suppression_name_here>
   Memcheck:Leak
   match-leak-kinds: reachable
   fun:calloc
   fun:xcalloc
   obj:/usr/bin/x86_64-linux-gnu-as
   obj:/usr/bin/x86_64-linux-gnu-as
   obj:/usr/bin/x86_64-linux-gnu-as
   obj:/usr/bin/x86_64-linux-gnu-as
   fun:(below main)
}
{
   <insert_a_suppression_name_here>
   Memcheck:Leak
   match-leak-kinds: possible
   fun:calloc
   fun:xcalloc
   obj:/usr/bin/x86_64-linux-gnu-as
   obj:/usr/bin/x86_64-linux-gnu-as
   obj:/usr/bin/x86_64-linux-gnu-as
   obj:/usr/bin/x86_64-linux-gnu-as
   fun:(below main)
}
{
   <insert_a_suppression_name_here>
   Memcheck:Leak
   match-leak-kinds: reachable
   fun:calloc
   fun:xcalloc
   fun:htab_create_typed_alloc
   fun:htab_create_alloc
   obj:/usr/bin/x86_64-linux-gnu-as
   fun:(below main)
}
{
   <insert_a_suppression_name_here>
   Memcheck:Leak
   match-leak-kinds: reachable
   fun:calloc
   fun:xcalloc
   fun:htab_create_typed_alloc
   fun:htab_create_alloc
   obj:/usr/bin/x86_64-linux-gnu-as
   obj:/usr/bin/x86_64-linux-gnu-as
   fun:(below main)
}
{
   <insert_a_suppression_name_here>
   Memcheck:Leak
   match-leak-kinds: possible
   fun:calloc
   obj:/usr/lib/x86_64-linux-gnu/libbfd-2.38-system.so
   fun:bfd_openw
   obj:/usr/bin/x86_64-linux-gnu-as
   fun:(below main)
}
{
   <insert_a_suppression_name_here>
   Memcheck:Leak
   match-leak-kinds: reachable
   fun:malloc
   fun:xmalloc
   obj:/usr/bin/x86_64-linux-gnu-as
   obj:/usr/bin/x86_64-linux-gnu-as
   obj:/usr/bin/x86_64-linux-gnu-as
   obj:/usr/bin/x86_64-linux-gnu-as
   obj:/usr/bin/x86_64-linux-gnu-as
   fun:(below main)
}
{
   <insert_a_suppression_name_here>
   Memcheck:Leak
   match-leak-kinds: possible
   fun:malloc
   fun:_objalloc_alloc
   fun:bfd_alloc
   fun:bfd_zalloc
   fun:_bfd_elf_new_section_hook
   obj:/usr/lib/x86_64-linux-gnu/libbfd-2.38-system.so
   obj:/usr/bin/x86_64-linux-gnu-as
   obj:/usr/bin/x86_64-linux-gnu-as
   obj:/usr/bin/x86_64-linux-gnu-as
   obj:/usr/bin/x86_64-linux-gnu-as
   fun:(below main)
}
{
   <insert_a_suppression_name_here>
   Memcheck:Leak
   match-leak-kinds: reachable
   fun:calloc
   fun:xcalloc
   obj:/usr/lib/x86_64-linux-gnu/libbfd-2.38-system.so
   fun:htab_find_slot_with_hash
   obj:/usr/bin/x86_64-linux-gnu-as
   obj:/usr/bin/x86_64-linux-gnu-as
   fun:(below main)
}
{
   <insert_a_suppression_name_here>
   Memcheck:Leak
   match-leak-kinds: reachable
   fun:malloc
   obj:/usr/bin/cat
   fun:(below main)
}
{
   <insert_a_suppression_name_here>
   Memcheck:Leak
   match-leak-kinds: reachable
   fun:malloc
   obj:/usr/bin/gawk
   obj:/usr/bin/gawk
   obj:/usr/bin/gawk
   fun:re_compile_pattern
   obj:/usr/bin/gawk
   obj:/usr/bin/gawk
   obj:/usr/bin/gawk
   obj:/usr/bin/gawk
   obj:/usr/bin/gawk
   fun:(below main)
}
{
   <insert_a_suppression_name_here>
   Memcheck:Leak
   match-leak-kinds: reachable
   fun:malloc
   obj:/usr/bin/gawk
   obj:/usr/bin/gawk
   fun:(below main)
}
{
   <insert_a_suppression_name_here>
   Memcheck:Leak
   match-leak-kinds: reachable
   fun:malloc
   obj:/usr/bin/gawk
   obj:/usr/bin/gawk
   obj:/usr/bin/gawk
   obj:/usr/bin/gawk
   obj:/usr/bin/gawk
   fun:(below main)
}
{
   <insert_a_suppression_name_here>
   Memcheck:Leak
   match-leak-kinds: reachable
   fun:malloc
   obj:/usr/bin/gawk
   obj:/usr/bin/gawk
   obj:/usr/bin/gawk
   obj:/usr/bin/gawk
   fun:(below main)
}
{
   <insert_a_suppression_name_here>
   Memcheck:Leak
   match-leak-kinds: reachable
   fun:malloc
   obj:/usr/bin/gawk
   obj:/usr/bin/gawk
   obj:/usr/bin/gawk
   fun:(below main)
}
{
   <insert_a_suppression_name_here>
   Memcheck:Leak
   match-leak-kinds: reachable
   fun:malloc
   obj:/usr/bin/gawk
   fun:re_compile_pattern
   obj:/usr/bin/gawk
   obj:/usr/bin/gawk
   obj:/usr/bin/gawk
   obj:/usr/bin/gawk
   obj:/usr/bin/gawk
   fun:(below main)
}
{
   <insert_a_suppression_name_here>
   Memcheck:Leak
   match-leak-kinds: reachable
   fun:malloc
   obj:/usr/bin/gawk
   obj:/usr/bin/gawk
   obj:/usr/bin/gawk
   obj:/usr/bin/gawk
   obj:/usr/bin/gawk
   obj:/usr/bin/gawk
   fun:(below main)
}
{
   <insert_a_suppression_name_here>
   Memcheck:Leak
   match-leak-kinds: reachable
   fun:malloc
   obj:/usr/bin/gawk
   obj:/usr/bin/gawk
   fun:re_compile_pattern
   obj:/usr/bin/gawk
   obj:/usr/bin/gawk
   obj:/usr/bin/gawk
   obj:/usr/bin/gawk
   obj:/usr/bin/gawk
   fun:(below main)
}
{
   <insert_a_suppression_name_here>
   Memcheck:Leak
   match-leak-kinds: reachable
   fun:malloc
   obj:/usr/bin/gawk
   obj:/usr/bin/gawk
   obj:/usr/bin/gawk
   obj:/usr/bin/gawk
   obj:/usr/bin/gawk
   obj:/usr/bin/gawk
   obj:/usr/bin/gawk
   fun:(below main)
}
{
   <insert_a_suppression_name_here>
   Memcheck:Leak
   match-leak-kinds: reachable
   fun:realloc
   obj:/usr/bin/gawk
   obj:/usr/bin/gawk
   obj:/usr/bin/gawk
   obj:/usr/bin/gawk
   obj:/usr/bin/gawk
   fun:re_compile_pattern
   obj:/usr/bin/gawk
   obj:/usr/bin/gawk
   obj:/usr/bin/gawk
   obj:/usr/bin/gawk
   obj:/usr/bin/gawk
}
{
   <insert_a_suppression_name_here>
   Memcheck:Leak
   match-leak-kinds: reachable
   fun:calloc
   obj:/usr/bin/gawk
   fun:re_compile_pattern
   obj:/usr/bin/gawk
   obj:/usr/bin/gawk
   obj:/usr/bin/gawk
   obj:/usr/bin/gawk
   obj:/usr/bin/gawk
   fun:(below main)
}
{
   <insert_a_suppression_name_here>
   Memcheck:Leak
   match-leak-kinds: possible
   fun:malloc
   obj:/usr/bin/gawk
   obj:/usr/bin/gawk
   fun:(below main)
}
{
   <insert_a_suppression_name_here>
   Memcheck:Leak
   match-leak-kinds: reachable
   fun:realloc
   obj:/usr/bin/gawk
   obj:/usr/bin/gawk
   obj:/usr/bin/gawk
   obj:/usr/bin/gawk
   obj:/usr/bin/gawk
   obj:/usr/bin/gawk
   obj:/usr/bin/gawk
   fun:(below main)
}
{
   <insert_a_suppression_name_here>
   Memcheck:Leak
   match-leak-kinds: reachable
   fun:calloc
   obj:/usr/bin/gawk
   obj:/usr/bin/gawk
   fun:re_compile_pattern
   obj:/usr/bin/gawk
   obj:/usr/bin/gawk
   obj:/usr/bin/gawk
   obj:/usr/bin/gawk
   obj:/usr/bin/gawk
   fun:(below main)
}
{
   <insert_a_suppression_name_here>
   Memcheck:Leak
   match-leak-kinds: reachable
   fun:calloc
   obj:/usr/bin/gawk
   obj:/usr/bin/gawk
   obj:/usr/bin/gawk
   obj:/usr/bin/gawk
   fun:(below main)
}
{
   <insert_a_suppression_name_here>
   Memcheck:Leak
   match-leak-kinds: reachable
   fun:calloc
   obj:/usr/bin/gawk
   obj:/usr/bin/gawk
   obj:/usr/bin/gawk
   obj:/usr/bin/gawk
   obj:/usr/bin/gawk
   fun:(below main)
}
{
   <insert_a_suppression_name_here>
   Memcheck:Leak
   match-leak-kinds: possible
   fun:malloc
   obj:/usr/bin/gawk
   obj:/usr/bin/gawk
   obj:/usr/bin/gawk
   obj:/usr/bin/gawk
   obj:/usr/bin/gawk
   obj:/usr/bin/gawk
   fun:(below main)
}
{
   <insert_a_suppression_name_here>
   Memcheck:Leak
   match-leak-kinds: reachable
   fun:calloc
   obj:/usr/bin/gawk
   obj:/usr/bin/gawk
   obj:/usr/bin/gawk
   obj:/usr/bin/gawk
   obj:/usr/bin/gawk
   obj:/usr/bin/gawk
   fun:(below main)
}
{
   <insert_a_suppression_name_here>
   Memcheck:Leak
   match-leak-kinds: reachable
   fun:calloc
   obj:/usr/bin/gawk
   obj:/usr/bin/gawk
   fun:(below main)
}
{
   <insert_a_suppression_name_here>
   Memcheck:Leak
   match-leak-kinds: reachable
   fun:calloc
   obj:/usr/bin/gawk
   obj:/usr/bin/gawk
   obj:/usr/bin/gawk
   fun:(below main)
}
{
   <insert_a_suppression_name_here>
   Memcheck:Leak
   match-leak-kinds: reachable
   fun:malloc
   obj:/usr/bin/gawk
   obj:/usr/bin/gawk
   obj:/usr/bin/gawk
   obj:/usr/bin/gawk
   obj:/usr/bin/gawk
   obj:/usr/bin/gawk
   obj:/usr/bin/gawk
   obj:/usr/bin/gawk
   fun:(below main)
}
{
   <insert_a_suppression_name_here>
   Memcheck:Leak
   match-leak-kinds: reachable
   fun:calloc
   obj:/usr/bin/gawk
   fun:(below main)
}
{
   <insert_a_suppression_name_here>
   Memcheck:Leak
   match-leak-kinds: possible
   fun:malloc
   obj:/usr/bin/gawk
   obj:/usr/bin/gawk
   obj:/usr/bin/gawk
   obj:/usr/bin/gawk
   obj:/usr/bin/gawk
   fun:(below main)
}
{
   <insert_a_suppression_name_here>
   Memcheck:Leak
   match-leak-kinds: possible
   fun:malloc
   obj:/usr/bin/gawk
   obj:/usr/bin/gawk
   obj:/usr/bin/gawk
   fun:(below main)
}
{
   <insert_a_suppression_name_here>
   Memcheck:Leak
   match-leak-kinds: definite
   fun:malloc
   obj:/usr/bin/chmod
   fun:(below main)
}
{
   <insert_a_suppression_name_here>
   Memcheck:Leak
   match-leak-kinds: reachable
   fun:malloc
   obj:/usr/bin/chmod
   fun:(below main)
}
{
   <insert_a_suppression_name_here>
   Memcheck:Leak
   match-leak-kinds: indirect
   fun:malloc
   fun:__gmp_default_allocate
   fun:__gmpz_realloc
   fun:__gmpz_add
   obj:/usr/bin/expr
   obj:/usr/bin/expr
   obj:/usr/bin/expr
   obj:/usr/bin/expr
   obj:/usr/bin/expr
   fun:(below main)
}
{
   <insert_a_suppression_name_here>
   Memcheck:Leak
   match-leak-kinds: definite
   fun:malloc
   obj:/usr/bin/expr
   obj:/usr/bin/expr
   obj:/usr/bin/expr
   obj:/usr/bin/expr
   obj:/usr/bin/expr
   obj:/usr/bin/expr
   obj:/usr/bin/expr
   obj:/usr/bin/expr
   fun:(below main)
}
{
   <insert_a_suppression_name_here>
   Memcheck:Leak
   match-leak-kinds: indirect
   fun:malloc
   fun:__gmp_default_allocate
   fun:__gmpz_realloc
   fun:__gmpz_set_str
   obj:/usr/bin/expr
   obj:/usr/bin/expr
   obj:/usr/bin/expr
   obj:/usr/bin/expr
   obj:/usr/bin/expr
   fun:(below main)
}
{
   <insert_a_suppression_name_here>
   Memcheck:Leak
   match-leak-kinds: reachable
   fun:realloc
   obj:/usr/bin/gawk
   obj:/usr/bin/gawk
   obj:/usr/bin/gawk
   obj:/usr/bin/gawk
   obj:/usr/bin/gawk
   obj:/usr/bin/gawk
   obj:/usr/bin/gawk
   obj:/usr/bin/gawk
   fun:(below main)
}
{
   <insert_a_suppression_name_here>
   Memcheck:Leak
   match-leak-kinds: reachable
   fun:realloc
   obj:/usr/bin/gawk
   obj:/usr/bin/gawk
   obj:/usr/bin/gawk
   obj:/usr/bin/gawk
   obj:/usr/bin/gawk
   fun:(below main)
}
{
   <insert_a_suppression_name_here>
   Memcheck:Leak
   match-leak-kinds: definite
   fun:malloc
   obj:/usr/bin/tail
   fun:(below main)
}
{
   <insert_a_suppression_name_here>
   Memcheck:Cond
   obj:/usr/lib/gcc/x86_64-linux-gnu/11/cc1
   obj:/usr/lib/gcc/x86_64-linux-gnu/11/cc1
   fun:_Z22ira_traverse_loop_treebP18ira_loop_tree_nodePFvS0_ES2_
   fun:_Z30ira_create_allocno_live_rangesv
   fun:_Z9ira_buildv
   obj:/usr/lib/gcc/x86_64-linux-gnu/11/cc1
   fun:_Z16execute_one_passP8opt_pass
   fun:_Z17execute_pass_listP8functionP8opt_pass
   fun:_ZN11cgraph_node6expandEv
   fun:_ZN12symbol_table7compileEv
   fun:_ZN12symbol_table25finalize_compilation_unitEv
   obj:/usr/lib/gcc/x86_64-linux-gnu/11/cc1
}
{
   <insert_a_suppression_name_here>
   Memcheck:Cond
   obj:/usr/lib/gcc/x86_64-linux-gnu/11/cc1
   fun:_Z22lra_create_live_rangesbb
   fun:_Z3lraP8_IO_FILE
   obj:/usr/lib/gcc/x86_64-linux-gnu/11/cc1
   fun:_Z16execute_one_passP8opt_pass
   fun:_Z17execute_pass_listP8functionP8opt_pass
   fun:_ZN11cgraph_node6expandEv
   fun:_ZN12symbol_table7compileEv
   fun:_ZN12symbol_table25finalize_compilation_unitEv
   obj:/usr/lib/gcc/x86_64-linux-gnu/11/cc1
   fun:_ZN6toplev4mainEiPPc
   fun:main
}
{
   <insert_a_suppression_name_here>
   Memcheck:Cond
   obj:/usr/lib/gcc/x86_64-linux-gnu/11/cc1
   obj:/usr/lib/gcc/x86_64-linux-gnu/11/cc1
   fun:_Z22lra_create_live_rangesbb
   fun:_Z3lraP8_IO_FILE
   obj:/usr/lib/gcc/x86_64-linux-gnu/11/cc1
   fun:_Z16execute_one_passP8opt_pass
   fun:_Z17execute_pass_listP8functionP8opt_pass
   fun:_ZN11cgraph_node6expandEv
   fun:_ZN12symbol_table7compileEv
   fun:_ZN12symbol_table25finalize_compilation_unitEv
   obj:/usr/lib/gcc/x86_64-linux-gnu/11/cc1
   fun:_ZN6toplev4mainEiPPc
}
{
   <insert_a_suppression_name_here>
   Memcheck:Cond
   fun:_Z19sparseset_and_complP13sparseset_defS0_S0_
   obj:/usr/lib/gcc/x86_64-linux-gnu/11/cc1
   fun:_Z22lra_create_live_rangesbb
   fun:_Z3lraP8_IO_FILE
   obj:/usr/lib/gcc/x86_64-linux-gnu/11/cc1
   fun:_Z16execute_one_passP8opt_pass
   fun:_Z17execute_pass_listP8functionP8opt_pass
   fun:_ZN11cgraph_node6expandEv
   fun:_ZN12symbol_table7compileEv
   fun:_ZN12symbol_table25finalize_compilation_unitEv
   obj:/usr/lib/gcc/x86_64-linux-gnu/11/cc1
   fun:_ZN6toplev4mainEiPPc
}
{
   <insert_a_suppression_name_here>
   Memcheck:Value8
   fun:_Z19sparseset_and_complP13sparseset_defS0_S0_
   obj:/usr/lib/gcc/x86_64-linux-gnu/11/cc1
   fun:_Z22lra_create_live_rangesbb
   fun:_Z3lraP8_IO_FILE
   obj:/usr/lib/gcc/x86_64-linux-gnu/11/cc1
   fun:_Z16execute_one_passP8opt_pass
   fun:_Z17execute_pass_listP8functionP8opt_pass
   fun:_ZN11cgraph_node6expandEv
   fun:_ZN12symbol_table7compileEv
   fun:_ZN12symbol_table25finalize_compilation_unitEv
   obj:/usr/lib/gcc/x86_64-linux-gnu/11/cc1
   fun:_ZN6toplev4mainEiPPc
}
{
   <insert_a_suppression_name_here>
   Memcheck:Value8
   obj:/usr/lib/gcc/x86_64-linux-gnu/11/cc1
   fun:_Z22lra_create_live_rangesbb
   fun:_Z3lraP8_IO_FILE
   obj:/usr/lib/gcc/x86_64-linux-gnu/11/cc1
   fun:_Z16execute_one_passP8opt_pass
   fun:_Z17execute_pass_listP8functionP8opt_pass
   fun:_ZN11cgraph_node6expandEv
   fun:_ZN12symbol_table7compileEv
   fun:_ZN12symbol_table25finalize_compilation_unitEv
   obj:/usr/lib/gcc/x86_64-linux-gnu/11/cc1
   fun:_ZN6toplev4mainEiPPc
   fun:main
}
{
   <insert_a_suppression_name_here>
   Memcheck:Cond
   obj:/usr/lib/gcc/x86_64-linux-gnu/11/cc1
   obj:/usr/lib/gcc/x86_64-linux-gnu/11/cc1
   obj:/usr/lib/gcc/x86_64-linux-gnu/11/cc1
   fun:_Z22lra_create_live_rangesbb
   fun:_Z3lraP8_IO_FILE
   obj:/usr/lib/gcc/x86_64-linux-gnu/11/cc1
   fun:_Z16execute_one_passP8opt_pass
   fun:_Z17execute_pass_listP8functionP8opt_pass
   fun:_ZN11cgraph_node6expandEv
   fun:_ZN12symbol_table7compileEv
   fun:_ZN12symbol_table25finalize_compilation_unitEv
   obj:/usr/lib/gcc/x86_64-linux-gnu/11/cc1
}
{
   <insert_a_suppression_name_here>
   Memcheck:Value8
   obj:/usr/lib/gcc/x86_64-linux-gnu/11/cc1
   obj:/usr/lib/gcc/x86_64-linux-gnu/11/cc1
   fun:_Z22lra_create_live_rangesbb
   fun:_Z3lraP8_IO_FILE
   obj:/usr/lib/gcc/x86_64-linux-gnu/11/cc1
   fun:_Z16execute_one_passP8opt_pass
   fun:_Z17execute_pass_listP8functionP8opt_pass
   fun:_ZN11cgraph_node6expandEv
   fun:_ZN12symbol_table7compileEv
   fun:_ZN12symbol_table25finalize_compilation_unitEv
   obj:/usr/lib/gcc/x86_64-linux-gnu/11/cc1
   fun:_ZN6toplev4mainEiPPc
}
{
   <insert_a_suppression_name_here>
   Memcheck:Leak
   match-leak-kinds: reachable
   fun:malloc
   fun:xstrdup
   fun:_Z24dwarf2out_begin_prologuejjPKc
   obj:/usr/lib/gcc/x86_64-linux-gnu/11/cc1
   obj:/usr/lib/gcc/x86_64-linux-gnu/11/cc1
   fun:_Z16execute_one_passP8opt_pass
   obj:/usr/lib/gcc/x86_64-linux-gnu/11/cc1
   fun:_Z17execute_pass_listP8functionP8opt_pass
   fun:_ZN11cgraph_node6expandEv
   fun:_ZN12symbol_table7compileEv
   fun:_ZN12symbol_table25finalize_compilation_unitEv
   obj:/usr/lib/gcc/x86_64-linux-gnu/11/cc1
}
{
   <insert_a_suppression_name_here>
   Memcheck:Leak
   match-leak-kinds: reachable
   fun:malloc
   fun:xstrdup
   fun:_Z22dwarf2out_end_epiloguejPKc
   fun:_Z18final_end_functionv
   obj:/usr/lib/gcc/x86_64-linux-gnu/11/cc1
   fun:_Z16execute_one_passP8opt_pass
   obj:/usr/lib/gcc/x86_64-linux-gnu/11/cc1
   fun:_Z17execute_pass_listP8functionP8opt_pass
   fun:_ZN11cgraph_node6expandEv
   fun:_ZN12symbol_table7compileEv
   fun:_ZN12symbol_table25finalize_compilation_unitEv
   obj:/usr/lib/gcc/x86_64-linux-gnu/11/cc1
}
{
   <insert_a_suppression_name_here>
   Memcheck:Leak
   match-leak-kinds: reachable
   fun:malloc
   fun:xrealloc
   fun:_Z14decode_optionsP11gcc_optionsS0_P17cl_decoded_optionjjP18diagnostic_contextPFvvE
   fun:_ZN6toplev4mainEiPPc
   fun:main
}
{
   <insert_a_suppression_name_here>
   Memcheck:Leak
   match-leak-kinds: reachable
   fun:malloc
   fun:xmalloc
   fun:_Z12get_fileinfoPKc
   fun:_Z10init_c_lexv
   fun:_Z21c_common_post_optionsPPKc
   fun:_ZN6toplev4mainEiPPc
   fun:main
}
{
   <insert_a_suppression_name_here>
   Memcheck:Leak
   match-leak-kinds: reachable
   fun:malloc
   fun:concat
   fun:_ZN3gcc12pass_manager22register_one_dump_fileEP8opt_pass
   fun:_ZN3gcc12pass_manager19register_dump_filesEP8opt_pass
   fun:_ZN6toplev4mainEiPPc
   fun:main
}
{
   <insert_a_suppression_name_here>
   Memcheck:Leak
   match-leak-kinds: reachable
   fun:malloc
   fun:xstrdup
   fun:_cpp_find_file
   fun:_cpp_stack_include
   obj:/usr/lib/gcc/x86_64-linux-gnu/11/cc1
   fun:_Z19c_common_parse_filev
   obj:/usr/lib/gcc/x86_64-linux-gnu/11/cc1
   fun:_ZN6toplev4mainEiPPc
   fun:main
}
{
   <insert_a_suppression_name_here>
   Memcheck:Leak
   match-leak-kinds: reachable
   fun:malloc
   fun:concat
   fun:_ZN3gcc12pass_manager22register_one_dump_fileEP8opt_pass
   fun:_ZN3gcc12pass_manager19register_dump_filesEP8opt_pass
   fun:_ZN3gcc12pass_managerC1EPNS_7contextE
   fun:_ZN6toplev4mainEiPPc
   fun:main
}
{
   <insert_a_suppression_name_here>
   Memcheck:Leak
   match-leak-kinds: reachable
   fun:malloc
   fun:concat
   fun:_ZN3gcc12pass_manager22register_one_dump_fileEP8opt_pass
   fun:_ZN3gcc12pass_manager19register_dump_filesEP8opt_pass
   fun:_ZN3gcc12pass_manager19register_dump_filesEP8opt_pass
   fun:_ZN3gcc12pass_manager19register_dump_filesEP8opt_pass
   fun:_ZN3gcc12pass_manager19register_dump_filesEP8opt_pass
   fun:_ZN6toplev4mainEiPPc
   fun:main
}
{
   <insert_a_suppression_name_here>
   Memcheck:Leak
   match-leak-kinds: reachable
   fun:malloc
   fun:xstrdup
   fun:_cpp_find_file
   fun:_Z18cpp_read_main_fileP10cpp_readerPKcb
   fun:_Z21c_common_post_optionsPPKc
   fun:_ZN6toplev4mainEiPPc
   fun:main
}
{
   <insert_a_suppression_name_here>
   Memcheck:Leak
   match-leak-kinds: reachable
   fun:malloc
   fun:xmalloc
   fun:xstrndup
   fun:_ZN6toplev4mainEiPPc
   fun:main
}
{
   <insert_a_suppression_name_here>
   Memcheck:Leak
   match-leak-kinds: reachable
   fun:malloc
   fun:_ZN3gcc12pass_manager18register_pass_nameEP8opt_passPKc
   fun:_ZN3gcc12pass_manager22register_one_dump_fileEP8opt_pass
   fun:_ZN3gcc12pass_manager19register_dump_filesEP8opt_pass
   fun:_ZN3gcc12pass_managerC1EPNS_7contextE
   fun:_ZN6toplev4mainEiPPc
   fun:main
}
{
   <insert_a_suppression_name_here>
   Memcheck:Leak
   match-leak-kinds: reachable
   fun:_Znwm
   fun:_ZN6toplev4mainEiPPc
   fun:main
}
{
   <insert_a_suppression_name_here>
   Memcheck:Leak
   match-leak-kinds: reachable
   fun:malloc
   fun:_cpp_find_file
   fun:_Z18cpp_read_main_fileP10cpp_readerPKcb
   fun:_Z21c_common_post_optionsPPKc
   fun:_ZN6toplev4mainEiPPc
   fun:main
}
{
   <insert_a_suppression_name_here>
   Memcheck:Leak
   match-leak-kinds: reachable
   fun:malloc
   obj:/usr/lib/gcc/x86_64-linux-gnu/11/cc1
   fun:_ZN11cgraph_node14remove_calleesEv
   fun:_ZN11cgraph_edge13rebuild_edgesEv
   fun:_Z16execute_one_passP8opt_pass
   fun:_Z17execute_pass_listP8functionP8opt_pass
   fun:_Z24do_per_function_toporderPFvP8functionPvES1_
   fun:_Z21execute_ipa_pass_listP8opt_pass
   fun:_ZN12symbol_table7compileEv
   fun:_ZN12symbol_table25finalize_compilation_unitEv
   obj:/usr/lib/gcc/x86_64-linux-gnu/11/cc1
   fun:_ZN6toplev4mainEiPPc
}
{
   <insert_a_suppression_name_here>
   Memcheck:Leak
   match-leak-kinds: reachable
   fun:malloc
   fun:_cpp_find_file
   fun:_cpp_stack_include
   obj:/usr/lib/gcc/x86_64-linux-gnu/11/cc1
   fun:_Z19c_common_parse_filev
   obj:/usr/lib/gcc/x86_64-linux-gnu/11/cc1
   fun:_ZN6toplev4mainEiPPc
   fun:main
}
{
   <insert_a_suppression_name_here>
   Memcheck:Leak
   match-leak-kinds: reachable
   fun:malloc
   fun:concat
   fun:_ZN3gcc12pass_manager22register_one_dump_fileEP8opt_pass
   fun:_ZN3gcc12pass_manager19register_dump_filesEP8opt_pass
   fun:_ZN3gcc12pass_manager19register_dump_filesEP8opt_pass
   fun:_ZN3gcc12pass_managerC1EPNS_7contextE
   fun:_ZN6toplev4mainEiPPc
   fun:main
}
{
   <insert_a_suppression_name_here>
   Memcheck:Leak
   match-leak-kinds: reachable
   fun:malloc
   fun:splay_tree_insert
   fun:_Z12get_fileinfoPKc
   fun:_Z10init_c_lexv
   fun:_Z21c_common_post_optionsPPKc
   fun:_ZN6toplev4mainEiPPc
   fun:main
}
{
   <insert_a_suppression_name_here>
   Memcheck:Leak
   match-leak-kinds: reachable
   fun:malloc
   fun:concat
   fun:_Z26build_common_builtin_nodesv
   fun:_Z27c_common_nodes_and_builtinsv
   fun:_Z22c_init_decl_processingv
   fun:_Z18c_objc_common_initv
   fun:_ZN6toplev4mainEiPPc
   fun:main
}
{
   <insert_a_suppression_name_here>
   Memcheck:Leak
   match-leak-kinds: reachable
   fun:malloc
   fun:xmalloc
   fun:_Z8init_ggcv
   fun:_ZN6toplev4mainEiPPc
   fun:main
}
{
   <insert_a_suppression_name_here>
   Memcheck:Leak
   match-leak-kinds: reachable
   fun:malloc
   fun:xrealloc
   obj:/usr/lib/gcc/x86_64-linux-gnu/11/cc1
   fun:_Z8init_ggcv
   fun:_ZN6toplev4mainEiPPc
   fun:main
}
{
   <insert_a_suppression_name_here>
   Memcheck:Leak
   match-leak-kinds: reachable
   fun:malloc
   fun:xrealloc
   obj:/usr/lib/gcc/x86_64-linux-gnu/11/cc1
   fun:_Z9push_cfunP8function
   fun:_Z12c_genericizeP9tree_node
   fun:_Z15finish_functionj
   obj:/usr/lib/gcc/x86_64-linux-gnu/11/cc1
   obj:/usr/lib/gcc/x86_64-linux-gnu/11/cc1
   fun:_Z12c_parse_filev
   fun:_Z19c_common_parse_filev
   obj:/usr/lib/gcc/x86_64-linux-gnu/11/cc1
   fun:_ZN6toplev4mainEiPPc
}
{
   <insert_a_suppression_name_here>
   Memcheck:Leak
   match-leak-kinds: reachable
   fun:_Znwm
   fun:_ZN3gcc7contextC1Ev
   fun:_ZN6toplev4mainEiPPc
   fun:main
}
{
   <insert_a_suppression_name_here>
   Memcheck:Leak
   match-leak-kinds: reachable
   fun:_Znwm
   fun:_ZN3gcc12pass_manager18register_pass_nameEP8opt_passPKc
   fun:_ZN3gcc12pass_manager22register_one_dump_fileEP8opt_pass
   fun:_ZN3gcc12pass_manager19register_dump_filesEP8opt_pass
   fun:_ZN3gcc12pass_managerC1EPNS_7contextE
   fun:_ZN6toplev4mainEiPPc
   fun:main
}
{
   <insert_a_suppression_name_here>
   Memcheck:Leak
   match-leak-kinds: reachable
   fun:_Znwm
   fun:_Z26register_scoped_attributesPK14attribute_specPKc
   fun:_Z22c_init_decl_processingv
   fun:_Z18c_objc_common_initv
   fun:_ZN6toplev4mainEiPPc
   fun:main
}
{
   <insert_a_suppression_name_here>
   Memcheck:Leak
   match-leak-kinds: reachable
   fun:_Znwm
   fun:_Z26register_scoped_attributesPK14attribute_specPKc
   fun:_Z15init_attributesv
   fun:_Z15decl_attributesPP9tree_nodeS0_iS0_
   obj:/usr/lib/gcc/x86_64-linux-gnu/11/cc1
   obj:/usr/lib/gcc/x86_64-linux-gnu/11/cc1
   fun:_Z27c_common_nodes_and_builtinsv
   fun:_Z22c_init_decl_processingv
   fun:_Z18c_objc_common_initv
   fun:_ZN6toplev4mainEiPPc
   fun:main
}
{
   <insert_a_suppression_name_here>
   Memcheck:Leak
   match-leak-kinds: reachable
   fun:_Znwm
   fun:_Z28build_type_inheritance_graphv
   fun:_ZN12symbol_table24remove_unreachable_nodesEP8_IO_FILE
   obj:/usr/lib/gcc/x86_64-linux-gnu/11/cc1
   fun:_Z16execute_one_passP8opt_pass
   fun:_Z21execute_ipa_pass_listP8opt_pass
   fun:_ZN12symbol_table7compileEv
   fun:_ZN12symbol_table25finalize_compilation_unitEv
   obj:/usr/lib/gcc/x86_64-linux-gnu/11/cc1
   fun:_ZN6toplev4mainEiPPc
   fun:main
}
{
   <insert_a_suppression_name_here>
   Memcheck:Leak
   match-leak-kinds: reachable
   fun:_Znwm
   obj:/usr/lib/gcc/x86_64-linux-gnu/11/cc1
   fun:_Z20statistics_fini_passv
   obj:/usr/lib/gcc/x86_64-linux-gnu/11/cc1
   fun:_Z16execute_one_passP8opt_pass
   fun:_Z21execute_ipa_pass_listP8opt_pass
   fun:_ZN12symbol_table7compileEv
   fun:_ZN12symbol_table25finalize_compilation_unitEv
   obj:/usr/lib/gcc/x86_64-linux-gnu/11/cc1
   fun:_ZN6toplev4mainEiPPc
   fun:main
}
{
   <insert_a_suppression_name_here>
   Memcheck:Leak
   match-leak-kinds: reachable
   fun:calloc
   fun:xcalloc
   fun:_Z27preprocess_insn_constraintsj
   fun:_Z14ira_setup_altsP8rtx_insn
   obj:/usr/lib/gcc/x86_64-linux-gnu/11/cc1
   fun:_Z22ira_traverse_loop_treebP18ira_loop_tree_nodePFvS0_ES2_
   fun:_Z30ira_create_allocno_live_rangesv
   fun:_Z9ira_buildv
   obj:/usr/lib/gcc/x86_64-linux-gnu/11/cc1
   fun:_Z16execute_one_passP8opt_pass
   fun:_Z17execute_pass_listP8functionP8opt_pass
   fun:_ZN11cgraph_node6expandEv
}
{
   <insert_a_suppression_name_here>
   Memcheck:Leak
   match-leak-kinds: reachable
   fun:malloc
   fun:concat
   fun:_ZN3gcc12pass_manager22register_one_dump_fileEP8opt_pass
   fun:_ZN3gcc12pass_manager19register_dump_filesEP8opt_pass
   fun:_ZN3gcc12pass_manager19register_dump_filesEP8opt_pass
   fun:_ZN3gcc12pass_manager19register_dump_filesEP8opt_pass
   fun:_ZN3gcc12pass_manager19register_dump_filesEP8opt_pass
   fun:_ZN3gcc12pass_managerC1EPNS_7contextE
   fun:_ZN6toplev4mainEiPPc
   fun:main
}
{
   <insert_a_suppression_name_here>
   Memcheck:Leak
   match-leak-kinds: reachable
   fun:calloc
   fun:_Z18ggc_internal_allocmPFvPvEmm
   fun:_ZN6toplev4mainEiPPc
   fun:main
}
{
   <insert_a_suppression_name_here>
   Memcheck:Leak
   match-leak-kinds: reachable
   fun:calloc
   fun:_Z18ggc_internal_allocmPFvPvEmm
   obj:/usr/lib/gcc/x86_64-linux-gnu/11/cc1
   obj:/usr/lib/gcc/x86_64-linux-gnu/11/cc1
   fun:_Z10init_ttreev
   fun:_ZN6toplev4mainEiPPc
   fun:main
}
{
   <insert_a_suppression_name_here>
   Memcheck:Leak
   match-leak-kinds: reachable
   fun:calloc
   fun:_Z18ggc_internal_allocmPFvPvEmm
   obj:/usr/lib/gcc/x86_64-linux-gnu/11/cc1
   obj:/usr/lib/gcc/x86_64-linux-gnu/11/cc1
   obj:/usr/lib/gcc/x86_64-linux-gnu/11/cc1
   fun:_Z10init_ttreev
   fun:_ZN6toplev4mainEiPPc
   fun:main
}
{
   <insert_a_suppression_name_here>
   Memcheck:Leak
   match-leak-kinds: reachable
   fun:calloc
   fun:_Z18ggc_internal_allocmPFvPvEmm
   fun:_Z26ggc_internal_cleared_allocmPFvPvEmm
   fun:_Z9make_node9tree_code
   fun:_Z10init_ttreev
   fun:_ZN6toplev4mainEiPPc
   fun:main
}
{
   <insert_a_suppression_name_here>
   Memcheck:Leak
   match-leak-kinds: reachable
   fun:calloc
   fun:_Z18ggc_internal_allocmPFvPvEmm
   fun:_Z9make_node9tree_code
   fun:_Z19ht_lookup_with_hashP2htPKhmj16ht_lookup_option
   fun:_cpp_init_directives
   fun:_cpp_init_hashtable
   fun:_Z17cpp_create_reader6c_langP2htP9line_maps
   fun:_Z21c_common_init_optionsjP17cl_decoded_option
   fun:_ZN6toplev4mainEiPPc
   fun:main
}
{
   <insert_a_suppression_name_here>
   Memcheck:Leak
   match-leak-kinds: reachable
   fun:malloc
   fun:splay_tree_new
   fun:_Z12get_fileinfoPKc
   fun:_Z10init_c_lexv
   fun:_Z21c_common_post_optionsPPKc
   fun:_ZN6toplev4mainEiPPc
   fun:main
}
{
   <insert_a_suppression_name_here>
   Memcheck:Leak
   match-leak-kinds: reachable
   fun:calloc
   fun:_Z18ggc_internal_allocmPFvPvEmm
   fun:_Z16line_map_new_rawP9line_mapsbj
   fun:_Z11linemap_addP9line_maps9lc_reasonjPKcj
   fun:_cpp_do_file_change
   fun:_cpp_stack_file
   fun:_Z18cpp_read_main_fileP10cpp_readerPKcb
   fun:_Z21c_common_post_optionsPPKc
   fun:_ZN6toplev4mainEiPPc
   fun:main
}
{
   <insert_a_suppression_name_here>
   Memcheck:Leak
   match-leak-kinds: reachable
   fun:calloc
   fun:_Z18ggc_internal_allocmPFvPvEmm
   fun:_Z26ggc_internal_cleared_allocmPFvPvEmm
   fun:_Z9make_node9tree_code
   fun:_Z23build_optimization_nodeP11gcc_optionsS0_
   fun:_ZN6toplev4mainEiPPc
   fun:main
}
{
   <insert_a_suppression_name_here>
   Memcheck:Leak
   match-leak-kinds: reachable
   fun:calloc
   fun:_Z18ggc_internal_allocmPFvPvEmm
   obj:/usr/lib/gcc/x86_64-linux-gnu/11/cc1
   obj:/usr/lib/gcc/x86_64-linux-gnu/11/cc1
   fun:_Z14init_emit_oncev
   fun:_ZN6toplev4mainEiPPc
   fun:main
}
{
   <insert_a_suppression_name_here>
   Memcheck:Leak
   match-leak-kinds: reachable
   fun:calloc
   fun:_Z18ggc_internal_allocmPFvPvEmm
   fun:_ZN18rtx_vector_builder5buildEv
   fun:_Z23gen_const_vec_duplicate12machine_modeP7rtx_def
   fun:_Z14init_emit_oncev
   fun:_ZN6toplev4mainEiPPc
   fun:main
}
{
   <insert_a_suppression_name_here>
   Memcheck:Leak
   match-leak-kinds: reachable
   fun:calloc
   fun:_Z18ggc_internal_allocmPFvPvEmm
   obj:/usr/lib/gcc/x86_64-linux-gnu/11/cc1
   obj:/usr/lib/gcc/x86_64-linux-gnu/11/cc1
   fun:_Z16init_varasm_oncev
   fun:_ZN6toplev4mainEiPPc
   fun:main
}
{
   <insert_a_suppression_name_here>
   Memcheck:Leak
   match-leak-kinds: reachable
   fun:calloc
   fun:_Z18ggc_internal_allocmPFvPvEmm
   fun:_Z26ggc_internal_cleared_allocmPFvPvEmm
   fun:_Z12c_parse_initv
   fun:_Z22c_init_decl_processingv
   fun:_Z18c_objc_common_initv
   fun:_ZN6toplev4mainEiPPc
   fun:main
}
{
   <insert_a_suppression_name_here>
   Memcheck:Leak
   match-leak-kinds: reachable
   fun:calloc
   fun:_Z18ggc_internal_allocmPFvPvEmm
   fun:_Z9make_node9tree_code
   fun:_Z20initialize_sizetypesv
   fun:_Z23build_common_tree_nodesb
   fun:_Z27c_common_nodes_and_builtinsv
   fun:_Z22c_init_decl_processingv
   fun:_Z18c_objc_common_initv
   fun:_ZN6toplev4mainEiPPc
   fun:main
}
{
   <insert_a_suppression_name_here>
   Memcheck:Leak
   match-leak-kinds: reachable
   fun:calloc
   fun:_Z18ggc_internal_allocmPFvPvEmm
   obj:/usr/lib/gcc/x86_64-linux-gnu/11/cc1
   fun:_Z13build_int_cstP9tree_node8poly_intILj1ElE
   fun:_Z20initialize_sizetypesv
   fun:_Z23build_common_tree_nodesb
   fun:_Z27c_common_nodes_and_builtinsv
   fun:_Z22c_init_decl_processingv
   fun:_Z18c_objc_common_initv
   fun:_ZN6toplev4mainEiPPc
   fun:main
}
{
   <insert_a_suppression_name_here>
   Memcheck:Leak
   match-leak-kinds: reachable
   fun:calloc
   fun:_Z18ggc_internal_allocmPFvPvEmm
   obj:/usr/lib/gcc/x86_64-linux-gnu/11/cc1
   fun:_Z40set_min_and_max_values_for_integral_typeP9tree_nodei6signop
   fun:_Z19fixup_unsigned_typeP9tree_node
   fun:_Z18make_unsigned_typei
   fun:_Z23build_common_tree_nodesb
   fun:_Z27c_common_nodes_and_builtinsv
   fun:_Z22c_init_decl_processingv
   fun:_Z18c_objc_common_initv
   fun:_ZN6toplev4mainEiPPc
   fun:main
}
{
   <insert_a_suppression_name_here>
   Memcheck:Leak
   match-leak-kinds: reachable
   fun:calloc
   fun:_Z18ggc_internal_allocmPFvPvEmm
   obj:/usr/lib/gcc/x86_64-linux-gnu/11/cc1
   fun:_Z13build_int_cstP9tree_node8poly_intILj1ElE
   fun:_Z23build_common_tree_nodesb
   fun:_Z27c_common_nodes_and_builtinsv
   fun:_Z22c_init_decl_processingv
   fun:_Z18c_objc_common_initv
   fun:_ZN6toplev4mainEiPPc
   fun:main
}
{
   <insert_a_suppression_name_here>
   Memcheck:Leak
   match-leak-kinds: reachable
   fun:calloc
   fun:_Z18ggc_internal_allocmPFvPvEmm
   fun:_Z9make_node9tree_code
   fun:_Z27build_pointer_type_for_modeP9tree_node12machine_modeb
   fun:_Z23build_common_tree_nodesb
   fun:_Z27c_common_nodes_and_builtinsv
   fun:_Z22c_init_decl_processingv
   fun:_Z18c_objc_common_initv
   fun:_ZN6toplev4mainEiPPc
   fun:main
}
{
   <insert_a_suppression_name_here>
   Memcheck:Leak
   match-leak-kinds: reachable
   fun:calloc
   fun:_Z18ggc_internal_allocmPFvPvEmm
   fun:_Z9make_node9tree_code
   fun:_Z10build_declj9tree_codeP9tree_nodeS1_
   fun:_Z18build_complex_typeP9tree_nodeb
   fun:_Z23build_common_tree_nodesb
   fun:_Z27c_common_nodes_and_builtinsv
   fun:_Z22c_init_decl_processingv
   fun:_Z18c_objc_common_initv
   fun:_ZN6toplev4mainEiPPc
   fun:main
}
{
   <insert_a_suppression_name_here>
   Memcheck:Leak
   match-leak-kinds: reachable
   fun:calloc
   fun:_Z18ggc_internal_allocmPFvPvEmm
   fun:_Z9make_node9tree_code
   fun:_Z18build_complex_typeP9tree_nodeb
   fun:_Z23build_common_tree_nodesb
   fun:_Z27c_common_nodes_and_builtinsv
   fun:_Z22c_init_decl_processingv
   fun:_Z18c_objc_common_initv
   fun:_ZN6toplev4mainEiPPc
   fun:main
}
{
   <insert_a_suppression_name_here>
   Memcheck:Leak
   match-leak-kinds: reachable
   fun:calloc
   fun:_Z18ggc_internal_allocmPFvPvEmm
   fun:_Z9make_node9tree_code
   fun:_Z15make_accum_typeiii
   fun:_Z23build_common_tree_nodesb
   fun:_Z27c_common_nodes_and_builtinsv
   fun:_Z22c_init_decl_processingv
   fun:_Z18c_objc_common_initv
   fun:_ZN6toplev4mainEiPPc
   fun:main
}
{
   <insert_a_suppression_name_here>
   Memcheck:Leak
   match-leak-kinds: reachable
   fun:calloc
   fun:_Z18ggc_internal_allocmPFvPvEmm
   fun:_Z9make_node9tree_code
   fun:_Z19ht_lookup_with_hashP2htPKhmj16ht_lookup_option
   fun:_Z20comp_type_attributesPK9tree_nodeS1_
   fun:_Z33build_type_attribute_qual_variantP9tree_nodeS0_i
   obj:/usr/lib/gcc/x86_64-linux-gnu/11/cc1
   fun:_Z23build_common_tree_nodesb
   fun:_Z27c_common_nodes_and_builtinsv
   fun:_Z22c_init_decl_processingv
   fun:_Z18c_objc_common_initv
   fun:_ZN6toplev4mainEiPPc
}
{
   <insert_a_suppression_name_here>
   Memcheck:Leak
   match-leak-kinds: reachable
   fun:calloc
   fun:_Z18ggc_internal_allocmPFvPvEmm
   fun:_Z9make_node9tree_code
   fun:_Z10build_declj9tree_codeP9tree_nodeS1_
   fun:_Z27c_common_nodes_and_builtinsv
   fun:_Z22c_init_decl_processingv
   fun:_Z18c_objc_common_initv
   fun:_ZN6toplev4mainEiPPc
   fun:main
}
{
   <insert_a_suppression_name_here>
   Memcheck:Leak
   match-leak-kinds: reachable
   fun:calloc
   fun:_Z18ggc_internal_allocmPFvPvEmm
   fun:_Z9copy_nodeP9tree_node
   fun:_Z23build_variant_type_copyP9tree_node
   fun:_Z27c_common_nodes_and_builtinsv
   fun:_Z22c_init_decl_processingv
   fun:_Z18c_objc_common_initv
   fun:_ZN6toplev4mainEiPPc
   fun:main
}
{
   <insert_a_suppression_name_here>
   Memcheck:Leak
   match-leak-kinds: reachable
   fun:calloc
   fun:_Z18ggc_internal_allocmPFvPvEmm
   fun:_Z9make_node9tree_code
   fun:_Z27build_pointer_type_for_modeP9tree_node12machine_modeb
   fun:_Z27c_common_nodes_and_builtinsv
   fun:_Z22c_init_decl_processingv
   fun:_Z18c_objc_common_initv
   fun:_ZN6toplev4mainEiPPc
   fun:main
}
{
   <insert_a_suppression_name_here>
   Memcheck:Leak
   match-leak-kinds: reachable
   fun:calloc
   fun:_Z18ggc_internal_allocmPFvPvEmm
   fun:_Z9make_node9tree_code
   fun:_Z19build_function_typeP9tree_nodeS0_
   obj:/usr/lib/gcc/x86_64-linux-gnu/11/cc1
   fun:_Z27c_common_nodes_and_builtinsv
   fun:_Z22c_init_decl_processingv
   fun:_Z18c_objc_common_initv
   fun:_ZN6toplev4mainEiPPc
   fun:main
}
{
   <insert_a_suppression_name_here>
   Memcheck:Leak
   match-leak-kinds: reachable
   fun:calloc
   fun:_Z18ggc_internal_allocmPFvPvEmm
   fun:_Z9make_node9tree_code
   fun:_Z19ht_lookup_with_hashP2htPKhmj16ht_lookup_option
   fun:_Z26get_identifier_with_lengthPKcm
   fun:_Z27c_common_nodes_and_builtinsv
   fun:_Z22c_init_decl_processingv
   fun:_Z18c_objc_common_initv
   fun:_ZN6toplev4mainEiPPc
   fun:main
}
{
   <insert_a_suppression_name_here>
   Memcheck:Leak
   match-leak-kinds: reachable
   fun:calloc
   fun:_Z18ggc_internal_allocmPFvPvEmm
   fun:_Z9make_node9tree_code
   obj:/usr/lib/gcc/x86_64-linux-gnu/11/cc1
   obj:/usr/lib/gcc/x86_64-linux-gnu/11/cc1
   fun:_Z27c_common_nodes_and_builtinsv
   fun:_Z22c_init_decl_processingv
   fun:_Z18c_objc_common_initv
   fun:_ZN6toplev4mainEiPPc
   fun:main
}
{
   <insert_a_suppression_name_here>
   Memcheck:Leak
   match-leak-kinds: reachable
   fun:calloc
   fun:_Z18ggc_internal_allocmPFvPvEmm
   fun:_Z9make_node9tree_code
   fun:_Z19ht_lookup_with_hashP2htPKhmj16ht_lookup_option
   fun:_Z14get_identifierPKc
   obj:/usr/lib/gcc/x86_64-linux-gnu/11/cc1
   obj:/usr/lib/gcc/x86_64-linux-gnu/11/cc1
   fun:_Z27c_common_nodes_and_builtinsv
   fun:_Z22c_init_decl_processingv
   fun:_Z18c_objc_common_initv
   fun:_ZN6toplev4mainEiPPc
   fun:main
}
{
   <insert_a_suppression_name_here>
   Memcheck:Leak
   match-leak-kinds: reachable
   fun:calloc
   fun:_Z18ggc_internal_allocmPFvPvEmm
   fun:_Z9make_node9tree_code
   fun:_Z19ht_lookup_with_hashP2htPKhmj16ht_lookup_option
   obj:/usr/lib/gcc/x86_64-linux-gnu/11/cc1
   obj:/usr/lib/gcc/x86_64-linux-gnu/11/cc1
   fun:_Z27c_common_nodes_and_builtinsv
   fun:_Z22c_init_decl_processingv
   fun:_Z18c_objc_common_initv
   fun:_ZN6toplev4mainEiPPc
   fun:main
}
{
   <insert_a_suppression_name_here>
   Memcheck:Leak
   match-leak-kinds: reachable
   fun:calloc
   fun:_Z18ggc_internal_allocmPFvPvEmm
   fun:_Z9copy_nodeP9tree_node
   fun:_Z33build_type_attribute_qual_variantP9tree_nodeS0_i
   fun:_Z15decl_attributesPP9tree_nodeS0_iS0_
   obj:/usr/lib/gcc/x86_64-linux-gnu/11/cc1
   obj:/usr/lib/gcc/x86_64-linux-gnu/11/cc1
   fun:_Z27c_common_nodes_and_builtinsv
   fun:_Z22c_init_decl_processingv
   fun:_Z18c_objc_common_initv
   fun:_ZN6toplev4mainEiPPc
   fun:main
}
{
   <insert_a_suppression_name_here>
   Memcheck:Leak
   match-leak-kinds: reachable
   fun:calloc
   fun:_Z18ggc_internal_allocmPFvPvEmm
   fun:_Z9make_node9tree_code
   obj:/usr/lib/gcc/x86_64-linux-gnu/11/cc1
   obj:/usr/lib/gcc/x86_64-linux-gnu/11/cc1
   fun:_Z18ix86_init_builtinsv
   fun:_Z27c_common_nodes_and_builtinsv
   fun:_Z22c_init_decl_processingv
   fun:_Z18c_objc_common_initv
   fun:_ZN6toplev4mainEiPPc
   fun:main
}
{
   <insert_a_suppression_name_here>
   Memcheck:Leak
   match-leak-kinds: reachable
   fun:calloc
   fun:_Z18ggc_internal_allocmPFvPvEmm
   fun:_Z9make_node9tree_code
   fun:_Z19ht_lookup_with_hashP2htPKhmj16ht_lookup_option
   obj:/usr/lib/gcc/x86_64-linux-gnu/11/cc1
   fun:_Z18ix86_init_builtinsv
   fun:_Z27c_common_nodes_and_builtinsv
   fun:_Z22c_init_decl_processingv
   fun:_Z18c_objc_common_initv
   fun:_ZN6toplev4mainEiPPc
   fun:main
}
{
   <insert_a_suppression_name_here>
   Memcheck:Leak
   match-leak-kinds: reachable
   fun:calloc
   fun:_Z18ggc_internal_allocmPFvPvEmm
   fun:_Z9make_node9tree_code
   obj:/usr/lib/gcc/x86_64-linux-gnu/11/cc1
   obj:/usr/lib/gcc/x86_64-linux-gnu/11/cc1
   obj:/usr/lib/gcc/x86_64-linux-gnu/11/cc1
   fun:_Z18ix86_init_builtinsv
   fun:_Z27c_common_nodes_and_builtinsv
   fun:_Z22c_init_decl_processingv
   fun:_Z18c_objc_common_initv
   fun:_ZN6toplev4mainEiPPc
   fun:main
}
{
   <insert_a_suppression_name_here>
   Memcheck:Leak
   match-leak-kinds: reachable
   fun:calloc
   fun:_Z18ggc_internal_allocmPFvPvEmm
   fun:_Z9make_node9tree_code
   obj:/usr/lib/gcc/x86_64-linux-gnu/11/cc1
   obj:/usr/lib/gcc/x86_64-linux-gnu/11/cc1
   obj:/usr/lib/gcc/x86_64-linux-gnu/11/cc1
   obj:/usr/lib/gcc/x86_64-linux-gnu/11/cc1
   obj:/usr/lib/gcc/x86_64-linux-gnu/11/cc1
   fun:_Z18ix86_init_builtinsv
   fun:_Z27c_common_nodes_and_builtinsv
   fun:_Z22c_init_decl_processingv
   fun:_Z18c_objc_common_initv
}
{
   <insert_a_suppression_name_here>
   Memcheck:Leak
   match-leak-kinds: reachable
   fun:calloc
   fun:_Z18ggc_internal_allocmPFvPvEmm
   fun:_Z9make_node9tree_code
   fun:_Z19ht_lookup_with_hashP2htPKhmj16ht_lookup_option
   obj:/usr/lib/gcc/x86_64-linux-gnu/11/cc1
   obj:/usr/lib/gcc/x86_64-linux-gnu/11/cc1
   fun:_Z18ix86_init_builtinsv
   fun:_Z27c_common_nodes_and_builtinsv
   fun:_Z22c_init_decl_processingv
   fun:_Z18c_objc_common_initv
   fun:_ZN6toplev4mainEiPPc
   fun:main
}
{
   <insert_a_suppression_name_here>
   Memcheck:Leak
   match-leak-kinds: reachable
   fun:calloc
   fun:_Z18ggc_internal_allocmPFvPvEmm
   fun:_Z9make_node9tree_code
   fun:_Z19build_function_typeP9tree_nodeS0_
   obj:/usr/lib/gcc/x86_64-linux-gnu/11/cc1
   obj:/usr/lib/gcc/x86_64-linux-gnu/11/cc1
   fun:_Z18ix86_init_builtinsv
   fun:_Z27c_common_nodes_and_builtinsv
   fun:_Z22c_init_decl_processingv
   fun:_Z18c_objc_common_initv
   fun:_ZN6toplev4mainEiPPc
   fun:main
}
{
   <insert_a_suppression_name_here>
   Memcheck:Leak
   match-leak-kinds: reachable
   fun:calloc
   fun:_Z18ggc_internal_allocmPFvPvEmm
   fun:_Z9make_node9tree_code
   obj:/usr/lib/gcc/x86_64-linux-gnu/11/cc1
   fun:_Z20add_builtin_functionPKcP9tree_nodei14built_in_classS0_S2_
   obj:/usr/lib/gcc/x86_64-linux-gnu/11/cc1
   fun:_Z26build_common_builtin_nodesv
   fun:_Z27c_common_nodes_and_builtinsv
   fun:_Z22c_init_decl_processingv
   fun:_Z18c_objc_common_initv
   fun:_ZN6toplev4mainEiPPc
   fun:main
}
{
   <insert_a_suppression_name_here>
   Memcheck:Leak
   match-leak-kinds: reachable
   fun:calloc
   fun:_Z18ggc_internal_allocmPFvPvEmm
   fun:_Z9make_node9tree_code
   fun:_Z19build_function_typeP9tree_nodeS0_
   fun:_Z24build_function_type_listP9tree_nodez
   fun:_Z26build_common_builtin_nodesv
   fun:_Z27c_common_nodes_and_builtinsv
   fun:_Z22c_init_decl_processingv
   fun:_Z18c_objc_common_initv
   fun:_ZN6toplev4mainEiPPc
   fun:main
}
{
   <insert_a_suppression_name_here>
   Memcheck:Leak
   match-leak-kinds: reachable
   fun:calloc
   fun:_Z18ggc_internal_allocmPFvPvEmm
   fun:_Z9make_node9tree_code
   fun:_Z19ht_lookup_with_hashP2htPKhmj16ht_lookup_option
   obj:/usr/lib/gcc/x86_64-linux-gnu/11/cc1
   fun:_Z28cpp_register_deferred_pragmaP10cpp_readerPKcS2_jbb
   fun:_Z17c_register_pragmaPKcS0_PFvP10cpp_readerE
   fun:_Z11init_pragmav
   fun:_Z13c_common_initv
   fun:_ZN6toplev4mainEiPPc
   fun:main
}
{
   <insert_a_suppression_name_here>
   Memcheck:Leak
   match-leak-kinds: reachable
   fun:calloc
   fun:_Z18ggc_internal_allocmPFvPvEmm
   fun:_Z9make_node9tree_code
   fun:_Z19ht_lookup_with_hashP2htPKhmj16ht_lookup_option
   obj:/usr/lib/gcc/x86_64-linux-gnu/11/cc1
   fun:_cpp_lex_direct
   fun:_cpp_lex_token
   obj:/usr/lib/gcc/x86_64-linux-gnu/11/cc1
   obj:/usr/lib/gcc/x86_64-linux-gnu/11/cc1
   fun:_Z10cpp_defineP10cpp_readerPKc
   fun:_Z20cpp_define_formattedP10cpp_readerPKcz
   fun:_Z42define_language_independent_builtin_macrosP10cpp_reader
}
{
   <insert_a_suppression_name_here>
   Memcheck:Leak
   match-leak-kinds: reachable
   fun:calloc
   fun:_Z18ggc_internal_allocmPFvPvEmm
   fun:_cpp_create_definition
   obj:/usr/lib/gcc/x86_64-linux-gnu/11/cc1
   fun:_Z10cpp_defineP10cpp_readerPKc
   fun:_Z25builtin_define_with_valuePKcS0_i
   fun:_Z21c_stddef_cpp_builtinsv
   fun:_Z14c_cpp_builtinsP10cpp_reader
   obj:/usr/lib/gcc/x86_64-linux-gnu/11/cc1
   fun:_Z19c_common_parse_filev
   obj:/usr/lib/gcc/x86_64-linux-gnu/11/cc1
   fun:_ZN6toplev4mainEiPPc
}
{
   <insert_a_suppression_name_here>
   Memcheck:Leak
   match-leak-kinds: reachable
   fun:calloc
   fun:_Z18ggc_internal_allocmPFvPvEmm
   fun:_Z9make_node9tree_code
   fun:_Z19ht_lookup_with_hashP2htPKhmj16ht_lookup_option
   obj:/usr/lib/gcc/x86_64-linux-gnu/11/cc1
   fun:_cpp_lex_direct
   fun:_cpp_lex_token
   obj:/usr/lib/gcc/x86_64-linux-gnu/11/cc1
   obj:/usr/lib/gcc/x86_64-linux-gnu/11/cc1
   fun:_Z10cpp_defineP10cpp_readerPKc
   fun:_Z25builtin_define_with_valuePKcS0_i
   fun:_Z21c_stddef_cpp_builtinsv
}
{
   <insert_a_suppression_name_here>
   Memcheck:Leak
   match-leak-kinds: reachable
   fun:calloc
   fun:_Z18ggc_internal_allocmPFvPvEmm
   fun:_Z9make_node9tree_code
   fun:_Z19ht_lookup_with_hashP2htPKhmj16ht_lookup_option
   obj:/usr/lib/gcc/x86_64-linux-gnu/11/cc1
   fun:_cpp_lex_direct
   fun:_cpp_lex_token
   obj:/usr/lib/gcc/x86_64-linux-gnu/11/cc1
   obj:/usr/lib/gcc/x86_64-linux-gnu/11/cc1
   fun:_Z10cpp_defineP10cpp_readerPKc
   obj:/usr/lib/gcc/x86_64-linux-gnu/11/cc1
   fun:_Z14c_cpp_builtinsP10cpp_reader
}
{
   <insert_a_suppression_name_here>
   Memcheck:Leak
   match-leak-kinds: reachable
   fun:calloc
   fun:_Z18ggc_internal_allocmPFvPvEmm
   fun:_Z9make_node9tree_code
   fun:_Z19ht_lookup_with_hashP2htPKhmj16ht_lookup_option
   obj:/usr/lib/gcc/x86_64-linux-gnu/11/cc1
   fun:_cpp_lex_direct
   fun:_cpp_lex_token
   obj:/usr/lib/gcc/x86_64-linux-gnu/11/cc1
   obj:/usr/lib/gcc/x86_64-linux-gnu/11/cc1
   fun:_Z10cpp_defineP10cpp_readerPKc
   obj:/usr/lib/gcc/x86_64-linux-gnu/11/cc1
   obj:/usr/lib/gcc/x86_64-linux-gnu/11/cc1
}
{
   <insert_a_suppression_name_here>
   Memcheck:Leak
   match-leak-kinds: reachable
   fun:calloc
   fun:_Z18ggc_internal_allocmPFvPvEmm
   fun:_Z9make_node9tree_code
   fun:_Z19ht_lookup_with_hashP2htPKhmj16ht_lookup_option
   obj:/usr/lib/gcc/x86_64-linux-gnu/11/cc1
   fun:_cpp_lex_direct
   fun:_cpp_lex_token
   obj:/usr/lib/gcc/x86_64-linux-gnu/11/cc1
   obj:/usr/lib/gcc/x86_64-linux-gnu/11/cc1
   fun:_Z10cpp_defineP10cpp_readerPKc
   fun:_Z25builtin_define_with_valuePKcS0_i
   obj:/usr/lib/gcc/x86_64-linux-gnu/11/cc1
}
{
   <insert_a_suppression_name_here>
   Memcheck:Leak
   match-leak-kinds: reachable
   fun:calloc
   fun:_Z18ggc_internal_allocmPFvPvEmm
   fun:_Z9make_node9tree_code
   fun:_Z19ht_lookup_with_hashP2htPKhmj16ht_lookup_option
   obj:/usr/lib/gcc/x86_64-linux-gnu/11/cc1
   fun:_cpp_lex_direct
   fun:_cpp_lex_token
   obj:/usr/lib/gcc/x86_64-linux-gnu/11/cc1
   obj:/usr/lib/gcc/x86_64-linux-gnu/11/cc1
   fun:_Z10cpp_defineP10cpp_readerPKc
   fun:_Z29builtin_define_with_int_valuePKcl
   obj:/usr/lib/gcc/x86_64-linux-gnu/11/cc1
}
{
   <insert_a_suppression_name_here>
   Memcheck:Leak
   match-leak-kinds: reachable
   fun:calloc
   fun:_Z18ggc_internal_allocmPFvPvEmm
   fun:_Z9make_node9tree_code
   fun:_Z19ht_lookup_with_hashP2htPKhmj16ht_lookup_option
   obj:/usr/lib/gcc/x86_64-linux-gnu/11/cc1
   fun:_cpp_lex_direct
   fun:_cpp_lex_token
   obj:/usr/lib/gcc/x86_64-linux-gnu/11/cc1
   obj:/usr/lib/gcc/x86_64-linux-gnu/11/cc1
   fun:_Z10cpp_defineP10cpp_readerPKc
   fun:_Z29builtin_define_with_int_valuePKcl
   fun:_Z14c_cpp_builtinsP10cpp_reader
}
{
   <insert_a_suppression_name_here>
   Memcheck:Leak
   match-leak-kinds: reachable
   fun:calloc
   fun:_Z18ggc_internal_allocmPFvPvEmm
   fun:_Z9make_node9tree_code
   fun:_Z19ht_lookup_with_hashP2htPKhmj16ht_lookup_option
   obj:/usr/lib/gcc/x86_64-linux-gnu/11/cc1
   fun:_cpp_lex_direct
   fun:_cpp_lex_token
   obj:/usr/lib/gcc/x86_64-linux-gnu/11/cc1
   obj:/usr/lib/gcc/x86_64-linux-gnu/11/cc1
   fun:_Z10cpp_defineP10cpp_readerPKc
   fun:_Z14c_cpp_builtinsP10cpp_reader
   obj:/usr/lib/gcc/x86_64-linux-gnu/11/cc1
}
{
   <insert_a_suppression_name_here>
   Memcheck:Leak
   match-leak-kinds: reachable
   fun:calloc
   fun:_Z18ggc_internal_allocmPFvPvEmm
   fun:_Z16line_map_new_rawP9line_mapsbj
   fun:_Z19linemap_enter_macroP9line_mapsP12cpp_hashnodejj
   obj:/usr/lib/gcc/x86_64-linux-gnu/11/cc1
   obj:/usr/lib/gcc/x86_64-linux-gnu/11/cc1
   fun:_cpp_parse_expr
   obj:/usr/lib/gcc/x86_64-linux-gnu/11/cc1
   fun:_cpp_handle_directive
   fun:_cpp_lex_token
   obj:/usr/lib/gcc/x86_64-linux-gnu/11/cc1
   fun:_Z16c_lex_with_flagsPP9tree_nodePjPhi
}
{
   <insert_a_suppression_name_here>
   Memcheck:Leak
   match-leak-kinds: reachable
   fun:calloc
   fun:_Z18ggc_internal_allocmPFvPvEmm
   fun:_Z22get_combined_adhoc_locP9line_mapsj12source_rangePv
   fun:_cpp_lex_direct
   fun:_cpp_lex_token
   obj:/usr/lib/gcc/x86_64-linux-gnu/11/cc1
   fun:_cpp_handle_directive
   fun:_cpp_lex_token
   obj:/usr/lib/gcc/x86_64-linux-gnu/11/cc1
   fun:_Z16c_lex_with_flagsPP9tree_nodePjPhi
   obj:/usr/lib/gcc/x86_64-linux-gnu/11/cc1
   fun:_Z19c_parser_peek_tokenP8c_parser
}
{
   <insert_a_suppression_name_here>
   Memcheck:Leak
   match-leak-kinds: reachable
   fun:calloc
   fun:_Z18ggc_internal_allocmPFvPvEmm
   fun:_Z9make_node9tree_code
   fun:_Z19ht_lookup_with_hashP2htPKhmj16ht_lookup_option
   obj:/usr/lib/gcc/x86_64-linux-gnu/11/cc1
   fun:_cpp_lex_direct
   fun:_cpp_lex_token
   obj:/usr/lib/gcc/x86_64-linux-gnu/11/cc1
   obj:/usr/lib/gcc/x86_64-linux-gnu/11/cc1
   obj:/usr/lib/gcc/x86_64-linux-gnu/11/cc1
   fun:_cpp_parse_expr
   obj:/usr/lib/gcc/x86_64-linux-gnu/11/cc1
}
{
   <insert_a_suppression_name_here>
   Memcheck:Leak
   match-leak-kinds: reachable
   fun:calloc
   fun:_Z18ggc_internal_allocmPFvPvEmm
   fun:_Z9make_node9tree_code
   fun:_Z19ht_lookup_with_hashP2htPKhmj16ht_lookup_option
   obj:/usr/lib/gcc/x86_64-linux-gnu/11/cc1
   fun:_cpp_lex_direct
   fun:_cpp_create_definition
   obj:/usr/lib/gcc/x86_64-linux-gnu/11/cc1
   fun:_cpp_handle_directive
   fun:_cpp_lex_token
   obj:/usr/lib/gcc/x86_64-linux-gnu/11/cc1
   fun:_Z16c_lex_with_flagsPP9tree_nodePjPhi
}
{
   <insert_a_suppression_name_here>
   Memcheck:Leak
   match-leak-kinds: reachable
   fun:calloc
   fun:_Z18ggc_internal_allocmPFvPvEmm
   obj:/usr/lib/gcc/x86_64-linux-gnu/11/cc1
   obj:/usr/lib/gcc/x86_64-linux-gnu/11/cc1
   fun:_Z14fold_unary_locj9tree_codeP9tree_nodeS1_
   obj:/usr/lib/gcc/x86_64-linux-gnu/11/cc1
   fun:_Z7convertP9tree_nodeS0_
   obj:/usr/lib/gcc/x86_64-linux-gnu/11/cc1
   fun:_Z9grokfieldjP12c_declaratorP11c_declspecsP9tree_nodePS4_
   obj:/usr/lib/gcc/x86_64-linux-gnu/11/cc1
   fun:_Z18c_parser_declspecsP8c_parserP11c_declspecsbbbbbbb16c_lookahead_kind
   obj:/usr/lib/gcc/x86_64-linux-gnu/11/cc1
}
{
   <insert_a_suppression_name_here>
   Memcheck:Leak
   match-leak-kinds: reachable
   fun:calloc
   fun:_Z18ggc_internal_allocmPFvPvEmm
   fun:_Z11ggc_reallocPvm
   fun:_Z16line_map_new_rawP9line_mapsbj
   fun:_Z19linemap_enter_macroP9line_mapsP12cpp_hashnodejj
   obj:/usr/lib/gcc/x86_64-linux-gnu/11/cc1
   obj:/usr/lib/gcc/x86_64-linux-gnu/11/cc1
   fun:_Z16c_lex_with_flagsPP9tree_nodePjPhi
   obj:/usr/lib/gcc/x86_64-linux-gnu/11/cc1
   fun:_Z12c_parse_filev
   fun:_Z19c_common_parse_filev
   obj:/usr/lib/gcc/x86_64-linux-gnu/11/cc1
}
{
   <insert_a_suppression_name_here>
   Memcheck:Leak
   match-leak-kinds: reachable
   fun:calloc
   fun:_Z18ggc_internal_allocmPFvPvEmm
   fun:_Z9make_node9tree_code
   fun:_Z19ht_lookup_with_hashP2htPKhmj16ht_lookup_option
   obj:/usr/lib/gcc/x86_64-linux-gnu/11/cc1
   fun:_cpp_lex_direct
   fun:_cpp_lex_token
   obj:/usr/lib/gcc/x86_64-linux-gnu/11/cc1
   obj:/usr/lib/gcc/x86_64-linux-gnu/11/cc1
   fun:_cpp_handle_directive
   fun:_cpp_lex_token
   obj:/usr/lib/gcc/x86_64-linux-gnu/11/cc1
}
{
   <insert_a_suppression_name_here>
   Memcheck:Leak
   match-leak-kinds: reachable
   fun:calloc
   fun:_Z18ggc_internal_allocmPFvPvEmm
   fun:_Z9make_node9tree_code
   obj:/usr/lib/gcc/x86_64-linux-gnu/11/cc1
   obj:/usr/lib/gcc/x86_64-linux-gnu/11/cc1
   fun:_Z14push_parm_declPK6c_parmPP9tree_node
   obj:/usr/lib/gcc/x86_64-linux-gnu/11/cc1
   obj:/usr/lib/gcc/x86_64-linux-gnu/11/cc1
   obj:/usr/lib/gcc/x86_64-linux-gnu/11/cc1
   obj:/usr/lib/gcc/x86_64-linux-gnu/11/cc1
   obj:/usr/lib/gcc/x86_64-linux-gnu/11/cc1
   fun:_Z12c_parse_filev
}
{
   <insert_a_suppression_name_here>
   Memcheck:Leak
   match-leak-kinds: reachable
   fun:calloc
   fun:_Z18ggc_internal_allocmPFvPvEmm
   obj:/usr/lib/gcc/x86_64-linux-gnu/11/cc1
   obj:/usr/lib/gcc/x86_64-linux-gnu/11/cc1
   fun:_Z15type_hash_canonjP9tree_node
   fun:_Z33build_type_attribute_qual_variantP9tree_nodeS0_i
   fun:_Z15decl_attributesPP9tree_nodeS0_iS0_
   obj:/usr/lib/gcc/x86_64-linux-gnu/11/cc1
   fun:_Z15decl_attributesPP9tree_nodeS0_iS0_
   fun:_Z10start_declP12c_declaratorP11c_declspecsbP9tree_nodePj
   obj:/usr/lib/gcc/x86_64-linux-gnu/11/cc1
   obj:/usr/lib/gcc/x86_64-linux-gnu/11/cc1
}
{
   <insert_a_suppression_name_here>
   Memcheck:Leak
   match-leak-kinds: reachable
   fun:calloc
   fun:_Z18ggc_internal_allocmPFvPvEmm
   fun:_Z24allocate_struct_functionP9tree_nodeb
   fun:_Z16store_parm_declsv
   obj:/usr/lib/gcc/x86_64-linux-gnu/11/cc1
   obj:/usr/lib/gcc/x86_64-linux-gnu/11/cc1
   fun:_Z12c_parse_filev
   fun:_Z19c_common_parse_filev
   obj:/usr/lib/gcc/x86_64-linux-gnu/11/cc1
   fun:_ZN6toplev4mainEiPPc
   fun:main
}
{
   <insert_a_suppression_name_here>
   Memcheck:Leak
   match-leak-kinds: reachable
   fun:calloc
   fun:_Z18ggc_internal_allocmPFvPvEmm
   fun:_Z9make_node9tree_code
   fun:_Z10build_declj9tree_codeP9tree_nodeS1_
   fun:_Z27build_translation_unit_declP9tree_node
   fun:_Z9pop_scopev
   fun:_Z14pop_file_scopev
   fun:_Z19c_common_parse_filev
   obj:/usr/lib/gcc/x86_64-linux-gnu/11/cc1
   fun:_ZN6toplev4mainEiPPc
   fun:main
}
{
   <insert_a_suppression_name_here>
   Memcheck:Leak
   match-leak-kinds: reachable
   fun:calloc
   fun:_Z18ggc_internal_allocmPFvPvEmm
   fun:_Z13init_tree_ssaP8functioni
   fun:_Z13gimplify_bodyP9tree_nodeb
   fun:_Z22gimplify_function_treeP9tree_node
   fun:_ZN11cgraph_node7analyzeEv
   obj:/usr/lib/gcc/x86_64-linux-gnu/11/cc1
   fun:_ZN12symbol_table25finalize_compilation_unitEv
   obj:/usr/lib/gcc/x86_64-linux-gnu/11/cc1
   fun:_ZN6toplev4mainEiPPc
   fun:main
}
{
   <insert_a_suppression_name_here>
   Memcheck:Leak
   match-leak-kinds: reachable
   fun:calloc
   fun:_Z18ggc_internal_allocmPFvPvEmm
   fun:_Z10alloc_loopv
   fun:_Z20init_loops_structureP8functionP5loopsj
   fun:_Z15flow_loops_findP5loops
   fun:_Z19loop_optimizer_initj
   obj:/usr/lib/gcc/x86_64-linux-gnu/11/cc1
   fun:_Z16execute_one_passP8opt_pass
   fun:_Z17execute_pass_listP8functionP8opt_pass
   fun:_ZN11cgraph_node7analyzeEv
   obj:/usr/lib/gcc/x86_64-linux-gnu/11/cc1
   fun:_ZN12symbol_table25finalize_compilation_unitEv
}
{
   <insert_a_suppression_name_here>
   Memcheck:Leak
   match-leak-kinds: reachable
   fun:calloc
   fun:_Z18ggc_internal_allocmPFvPvEmm
   obj:/usr/lib/gcc/x86_64-linux-gnu/11/cc1
   fun:_Z9init_emitv
   obj:/usr/lib/gcc/x86_64-linux-gnu/11/cc1
   fun:_Z14initialize_rtlv
   fun:_Z19init_function_startP9tree_node
   fun:_ZN11cgraph_node6expandEv
   fun:_ZN12symbol_table7compileEv
   fun:_ZN12symbol_table25finalize_compilation_unitEv
   obj:/usr/lib/gcc/x86_64-linux-gnu/11/cc1
   fun:_ZN6toplev4mainEiPPc
}
{
   <insert_a_suppression_name_here>
   Memcheck:Leak
   match-leak-kinds: reachable
   fun:calloc
   fun:_Z18ggc_internal_allocmPFvPvEmm
   obj:/usr/lib/gcc/x86_64-linux-gnu/11/cc1
   obj:/usr/lib/gcc/x86_64-linux-gnu/11/cc1
   obj:/usr/lib/gcc/x86_64-linux-gnu/11/cc1
   obj:/usr/lib/gcc/x86_64-linux-gnu/11/cc1
   fun:_Z11init_expmedv
   fun:_Z14initialize_rtlv
   fun:_Z19init_function_startP9tree_node
   fun:_ZN11cgraph_node6expandEv
   fun:_ZN12symbol_table7compileEv
   fun:_ZN12symbol_table25finalize_compilation_unitEv
}
{
   <insert_a_suppression_name_here>
   Memcheck:Leak
   match-leak-kinds: reachable
   fun:calloc
   fun:_Z18ggc_internal_allocmPFvPvEmm
   obj:/usr/lib/gcc/x86_64-linux-gnu/11/cc1
   fun:_Z9init_emitv
   obj:/usr/lib/gcc/x86_64-linux-gnu/11/cc1
   fun:_Z19init_function_startP9tree_node
   fun:_ZN11cgraph_node6expandEv
   fun:_ZN12symbol_table7compileEv
   fun:_ZN12symbol_table25finalize_compilation_unitEv
   obj:/usr/lib/gcc/x86_64-linux-gnu/11/cc1
   fun:_ZN6toplev4mainEiPPc
   fun:main
}
{
   <insert_a_suppression_name_here>
   Memcheck:Leak
   match-leak-kinds: reachable
   fun:calloc
   fun:_Z18ggc_internal_allocmPFvPvEmm
   fun:_Z9make_node9tree_code
   fun:_Z10build_declj9tree_codeP9tree_nodeS1_
   obj:/usr/lib/gcc/x86_64-linux-gnu/11/cc1
   obj:/usr/lib/gcc/x86_64-linux-gnu/11/cc1
   obj:/usr/lib/gcc/x86_64-linux-gnu/11/cc1
   fun:_Z18expand_expr_real_1P9tree_nodeP7rtx_def12machine_mode15expand_modifierPS2_b
   fun:_Z11expand_callP9tree_nodeP7rtx_defi
   fun:_Z18expand_expr_real_1P9tree_nodeP7rtx_def12machine_mode15expand_modifierPS2_b
   obj:/usr/lib/gcc/x86_64-linux-gnu/11/cc1
   obj:/usr/lib/gcc/x86_64-linux-gnu/11/cc1
}
{
   <insert_a_suppression_name_here>
   Memcheck:Leak
   match-leak-kinds: reachable
   fun:calloc
   fun:_Z18ggc_internal_allocmPFvPvEmm
   fun:_Z11ggc_reallocPvm
   fun:_Z15grow_reg_equivsv
   obj:/usr/lib/gcc/x86_64-linux-gnu/11/cc1
   fun:_Z30calculate_elim_costs_all_insnsv
   fun:_Z9ira_costsv
   fun:_Z9ira_buildv
   obj:/usr/lib/gcc/x86_64-linux-gnu/11/cc1
   fun:_Z16execute_one_passP8opt_pass
   fun:_Z17execute_pass_listP8functionP8opt_pass
   fun:_ZN11cgraph_node6expandEv
}
{
   <insert_a_suppression_name_here>
   Memcheck:Leak
   match-leak-kinds: reachable
   fun:malloc
   fun:xrealloc
   obj:/usr/lib/gcc/x86_64-linux-gnu/11/cc1
   fun:_Z18compute_alignmentsv
   fun:_Z16execute_one_passP8opt_pass
   obj:/usr/lib/gcc/x86_64-linux-gnu/11/cc1
   fun:_Z17execute_pass_listP8functionP8opt_pass
   fun:_ZN11cgraph_node6expandEv
   fun:_ZN12symbol_table7compileEv
   fun:_ZN12symbol_table25finalize_compilation_unitEv
   obj:/usr/lib/gcc/x86_64-linux-gnu/11/cc1
   fun:_ZN6toplev4mainEiPPc
}
{
   <insert_a_suppression_name_here>
   Memcheck:Leak
   match-leak-kinds: reachable
   fun:calloc
   fun:_Z18ggc_internal_allocmPFvPvEmm
   fun:_Z10init_ttreev
   fun:_ZN6toplev4mainEiPPc
   fun:main
}
{
   <insert_a_suppression_name_here>
   Memcheck:Leak
   match-leak-kinds: reachable
   fun:calloc
   fun:_Z18ggc_internal_allocmPFvPvEmm
   fun:_Z9rtx_alloc8rtx_code
   fun:_Z28const_double_from_real_value10real_value12machine_mode
   fun:_Z14init_emit_oncev
   fun:_ZN6toplev4mainEiPPc
   fun:main
}
{
   <insert_a_suppression_name_here>
   Memcheck:Leak
   match-leak-kinds: reachable
   fun:calloc
   fun:_Z18ggc_internal_allocmPFvPvEmm
   fun:_Z9rtx_alloc8rtx_code
   fun:_Z14init_emit_oncev
   fun:_ZN6toplev4mainEiPPc
   fun:main
}
{
   <insert_a_suppression_name_here>
   Memcheck:Leak
   match-leak-kinds: reachable
   fun:calloc
   fun:_Z18ggc_internal_allocmPFvPvEmm
   fun:_Z14init_emit_regsv
   fun:_ZN6toplev4mainEiPPc
   fun:main
}
{
   <insert_a_suppression_name_here>
   Memcheck:Leak
   match-leak-kinds: reachable
   fun:calloc
   fun:_Z18ggc_internal_allocmPFvPvEmm
   obj:/usr/lib/gcc/x86_64-linux-gnu/11/cc1
   fun:_Z27c_common_nodes_and_builtinsv
   fun:_Z22c_init_decl_processingv
   fun:_Z18c_objc_common_initv
   fun:_ZN6toplev4mainEiPPc
   fun:main
}
{
   <insert_a_suppression_name_here>
   Memcheck:Leak
   match-leak-kinds: reachable
   fun:calloc
   fun:_Z18ggc_internal_allocmPFvPvEmm
   obj:/usr/lib/gcc/x86_64-linux-gnu/11/cc1
   fun:_Z19build_function_typeP9tree_nodeS0_
   obj:/usr/lib/gcc/x86_64-linux-gnu/11/cc1
   fun:_Z27c_common_nodes_and_builtinsv
   fun:_Z22c_init_decl_processingv
   fun:_Z18c_objc_common_initv
   fun:_ZN6toplev4mainEiPPc
   fun:main
}
{
   <insert_a_suppression_name_here>
   Memcheck:Leak
   match-leak-kinds: reachable
   fun:calloc
   fun:_Z18ggc_internal_allocmPFvPvEmm
   fun:_Z9tree_consP9tree_nodeS0_S0_
   fun:_Z33build_varargs_function_type_arrayP9tree_nodeiPS0_
   obj:/usr/lib/gcc/x86_64-linux-gnu/11/cc1
   fun:_Z27c_common_nodes_and_builtinsv
   fun:_Z22c_init_decl_processingv
   fun:_Z18c_objc_common_initv
   fun:_ZN6toplev4mainEiPPc
   fun:main
}
{
   <insert_a_suppression_name_here>
   Memcheck:Leak
   match-leak-kinds: reachable
   fun:calloc
   fun:_Z18ggc_internal_allocmPFvPvEmm
   fun:_Z9tree_consP9tree_nodeS0_S0_
   fun:_Z27c_common_nodes_and_builtinsv
   fun:_Z22c_init_decl_processingv
   fun:_Z18c_objc_common_initv
   fun:_ZN6toplev4mainEiPPc
   fun:main
}
{
   <insert_a_suppression_name_here>
   Memcheck:Leak
   match-leak-kinds: reachable
   fun:calloc
   fun:_Z18ggc_internal_allocmPFvPvEmm
   fun:_Z15decl_attributesPP9tree_nodeS0_iS0_
   obj:/usr/lib/gcc/x86_64-linux-gnu/11/cc1
   obj:/usr/lib/gcc/x86_64-linux-gnu/11/cc1
   fun:_Z27c_common_nodes_and_builtinsv
   fun:_Z22c_init_decl_processingv
   fun:_Z18c_objc_common_initv
   fun:_ZN6toplev4mainEiPPc
   fun:main
}
{
   <insert_a_suppression_name_here>
   Memcheck:Leak
   match-leak-kinds: reachable
   fun:calloc
   fun:_Z18ggc_internal_allocmPFvPvEmm
   obj:/usr/lib/gcc/x86_64-linux-gnu/11/cc1
   fun:_Z18ix86_init_builtinsv
   fun:_Z27c_common_nodes_and_builtinsv
   fun:_Z22c_init_decl_processingv
   fun:_Z18c_objc_common_initv
   fun:_ZN6toplev4mainEiPPc
   fun:main
}
{
   <insert_a_suppression_name_here>
   Memcheck:Leak
   match-leak-kinds: reachable
   fun:calloc
   fun:_Z18ggc_internal_allocmPFvPvEmm
   fun:_Z9tree_consP9tree_nodeS0_S0_
   fun:_Z19set_call_expr_flagsP9tree_nodei
   obj:/usr/lib/gcc/x86_64-linux-gnu/11/cc1
   fun:_Z26build_common_builtin_nodesv
   fun:_Z27c_common_nodes_and_builtinsv
   fun:_Z22c_init_decl_processingv
   fun:_Z18c_objc_common_initv
   fun:_ZN6toplev4mainEiPPc
   fun:main
}
{
   <insert_a_suppression_name_here>
   Memcheck:Leak
   match-leak-kinds: reachable
   fun:calloc
   fun:_Z18ggc_internal_allocmPFvPvEmm
   fun:_Z9make_node9tree_code
   obj:/usr/lib/gcc/x86_64-linux-gnu/11/cc1
   obj:/usr/lib/gcc/x86_64-linux-gnu/11/cc1
   obj:/usr/lib/gcc/x86_64-linux-gnu/11/cc1
   obj:/usr/lib/gcc/x86_64-linux-gnu/11/cc1
   fun:_Z12c_parse_filev
   fun:_Z19c_common_parse_filev
   obj:/usr/lib/gcc/x86_64-linux-gnu/11/cc1
   fun:_ZN6toplev4mainEiPPc
   fun:main
}
{
   <insert_a_suppression_name_here>
   Memcheck:Leak
   match-leak-kinds: reachable
   fun:calloc
   fun:_Z18ggc_internal_allocmPFvPvEmm
   fun:_Z9tree_consP9tree_nodeS0_S0_
   fun:_Z14push_parm_declPK6c_parmPP9tree_node
   obj:/usr/lib/gcc/x86_64-linux-gnu/11/cc1
   obj:/usr/lib/gcc/x86_64-linux-gnu/11/cc1
   obj:/usr/lib/gcc/x86_64-linux-gnu/11/cc1
   obj:/usr/lib/gcc/x86_64-linux-gnu/11/cc1
   obj:/usr/lib/gcc/x86_64-linux-gnu/11/cc1
   fun:_Z12c_parse_filev
   fun:_Z19c_common_parse_filev
   obj:/usr/lib/gcc/x86_64-linux-gnu/11/cc1
}
{
   <insert_a_suppression_name_here>
   Memcheck:Leak
   match-leak-kinds: reachable
   fun:calloc
   fun:_Z18ggc_internal_allocmPFvPvEmm
   fun:_Z9tree_consP9tree_nodeS0_S0_
   obj:/usr/lib/gcc/x86_64-linux-gnu/11/cc1
   fun:_Z18append_access_attrPP9tree_nodeS0_PKccPl
   obj:/usr/lib/gcc/x86_64-linux-gnu/11/cc1
   fun:_Z15decl_attributesPP9tree_nodeS0_iS0_
   fun:_Z10start_declP12c_declaratorP11c_declspecsbP9tree_nodePj
   obj:/usr/lib/gcc/x86_64-linux-gnu/11/cc1
   obj:/usr/lib/gcc/x86_64-linux-gnu/11/cc1
   fun:_Z12c_parse_filev
   fun:_Z19c_common_parse_filev
}
{
   <insert_a_suppression_name_here>
   Memcheck:Leak
   match-leak-kinds: reachable
   fun:calloc
   fun:_Z18ggc_internal_allocmPFvPvEmm
   fun:_Z19linemap_enter_macroP9line_mapsP12cpp_hashnodejj
   obj:/usr/lib/gcc/x86_64-linux-gnu/11/cc1
   obj:/usr/lib/gcc/x86_64-linux-gnu/11/cc1
   fun:_Z16c_lex_with_flagsPP9tree_nodePjPhi
   obj:/usr/lib/gcc/x86_64-linux-gnu/11/cc1
   obj:/usr/lib/gcc/x86_64-linux-gnu/11/cc1
   obj:/usr/lib/gcc/x86_64-linux-gnu/11/cc1
   obj:/usr/lib/gcc/x86_64-linux-gnu/11/cc1
   obj:/usr/lib/gcc/x86_64-linux-gnu/11/cc1
   fun:_Z12c_parse_filev
}
{
   <insert_a_suppression_name_here>
   Memcheck:Leak
   match-leak-kinds: reachable
   fun:calloc
   fun:_Z18ggc_internal_allocmPFvPvEmm
   fun:_Z26ggc_internal_cleared_allocmPFvPvEmm
   fun:_Z12make_int_cstii
   fun:_Z10init_ttreev
   fun:_ZN6toplev4mainEiPPc
   fun:main
}
{
   <insert_a_suppression_name_here>
   Memcheck:Leak
   match-leak-kinds: reachable
   fun:calloc
   fun:_Z18ggc_internal_allocmPFvPvEmm
   fun:_Z9make_node9tree_code
   fun:_Z10init_ttreev
   fun:_ZN6toplev4mainEiPPc
   fun:main
}
{
   <insert_a_suppression_name_here>
   Memcheck:Leak
   match-leak-kinds: reachable
   fun:calloc
   fun:_Z18ggc_internal_allocmPFvPvEmm
   obj:/usr/lib/gcc/x86_64-linux-gnu/11/cc1
   obj:/usr/lib/gcc/x86_64-linux-gnu/11/cc1
   fun:_Z40set_min_and_max_values_for_integral_typeP9tree_nodei6signop
   fun:_Z19fixup_unsigned_typeP9tree_node
   fun:_Z18make_unsigned_typei
   fun:_Z23build_common_tree_nodesb
   fun:_Z27c_common_nodes_and_builtinsv
   fun:_Z22c_init_decl_processingv
   fun:_Z18c_objc_common_initv
   fun:_ZN6toplev4mainEiPPc
}
{
   <insert_a_suppression_name_here>
   Memcheck:Leak
   match-leak-kinds: reachable
   fun:calloc
   fun:_Z18ggc_internal_allocmPFvPvEmm
   fun:_Z19ht_lookup_with_hashP2htPKhmj16ht_lookup_option
   obj:/usr/lib/gcc/x86_64-linux-gnu/11/cc1
   obj:/usr/lib/gcc/x86_64-linux-gnu/11/cc1
   fun:_Z27c_common_nodes_and_builtinsv
   fun:_Z22c_init_decl_processingv
   fun:_Z18c_objc_common_initv
   fun:_ZN6toplev4mainEiPPc
   fun:main
}
{
   <insert_a_suppression_name_here>
   Memcheck:Leak
   match-leak-kinds: reachable
   fun:calloc
   fun:_Z18ggc_internal_allocmPFvPvEmm
   fun:_Z19ht_lookup_with_hashP2htPKhmj16ht_lookup_option
   obj:/usr/lib/gcc/x86_64-linux-gnu/11/cc1
   fun:_Z18ix86_init_builtinsv
   fun:_Z27c_common_nodes_and_builtinsv
   fun:_Z22c_init_decl_processingv
   fun:_Z18c_objc_common_initv
   fun:_ZN6toplev4mainEiPPc
   fun:main
}
{
   <insert_a_suppression_name_here>
   Memcheck:Leak
   match-leak-kinds: reachable
   fun:calloc
   fun:_Z18ggc_internal_allocmPFvPvEmm
   fun:_Z19ht_lookup_with_hashP2htPKhmj16ht_lookup_option
   obj:/usr/lib/gcc/x86_64-linux-gnu/11/cc1
   fun:_cpp_lex_direct
   fun:_cpp_lex_token
   obj:/usr/lib/gcc/x86_64-linux-gnu/11/cc1
   obj:/usr/lib/gcc/x86_64-linux-gnu/11/cc1
   fun:_Z10cpp_defineP10cpp_readerPKc
   fun:_Z25builtin_define_with_valuePKcS0_i
   fun:_Z21c_stddef_cpp_builtinsv
   fun:_Z14c_cpp_builtinsP10cpp_reader
}
{
   <insert_a_suppression_name_here>
   Memcheck:Leak
   match-leak-kinds: reachable
   fun:calloc
   fun:_Z18ggc_internal_allocmPFvPvEmm
   fun:_Z19ht_lookup_with_hashP2htPKhmj16ht_lookup_option
   obj:/usr/lib/gcc/x86_64-linux-gnu/11/cc1
   fun:_cpp_lex_direct
   fun:_cpp_lex_token
   obj:/usr/lib/gcc/x86_64-linux-gnu/11/cc1
   obj:/usr/lib/gcc/x86_64-linux-gnu/11/cc1
   fun:_Z10cpp_defineP10cpp_readerPKc
   fun:_Z29builtin_define_with_int_valuePKcl
   fun:_Z14c_cpp_builtinsP10cpp_reader
   obj:/usr/lib/gcc/x86_64-linux-gnu/11/cc1
}
{
   <insert_a_suppression_name_here>
   Memcheck:Leak
   match-leak-kinds: reachable
   fun:calloc
   fun:_Z18ggc_internal_allocmPFvPvEmm
   fun:_Z19ht_lookup_with_hashP2htPKhmj16ht_lookup_option
   obj:/usr/lib/gcc/x86_64-linux-gnu/11/cc1
   fun:_cpp_lex_direct
   fun:_cpp_lex_token
   obj:/usr/lib/gcc/x86_64-linux-gnu/11/cc1
   obj:/usr/lib/gcc/x86_64-linux-gnu/11/cc1
   fun:_Z10cpp_defineP10cpp_readerPKc
   fun:_Z20cpp_define_formattedP10cpp_readerPKcz
   fun:_Z18ix86_target_macrosv
   fun:_Z14c_cpp_builtinsP10cpp_reader
}
{
   <insert_a_suppression_name_here>
   Memcheck:Leak
   match-leak-kinds: reachable
   fun:calloc
   fun:_Z18ggc_internal_allocmPFvPvEmm
   fun:_Z19linemap_enter_macroP9line_mapsP12cpp_hashnodejj
   obj:/usr/lib/gcc/x86_64-linux-gnu/11/cc1
   obj:/usr/lib/gcc/x86_64-linux-gnu/11/cc1
   fun:_Z16c_lex_with_flagsPP9tree_nodePjPhi
   obj:/usr/lib/gcc/x86_64-linux-gnu/11/cc1
   fun:_Z18c_parser_declspecsP8c_parserP11c_declspecsbbbbbbb16c_lookahead_kind
   obj:/usr/lib/gcc/x86_64-linux-gnu/11/cc1
   obj:/usr/lib/gcc/x86_64-linux-gnu/11/cc1
   fun:_Z12c_parse_filev
   fun:_Z19c_common_parse_filev
}
{
   <insert_a_suppression_name_here>
   Memcheck:Leak
   match-leak-kinds: reachable
   fun:calloc
   fun:_Z18ggc_internal_allocmPFvPvEmm
   fun:_Z20init_fake_stack_memsv
   fun:_Z14initialize_rtlv
   fun:_Z19init_function_startP9tree_node
   fun:_ZN11cgraph_node6expandEv
   fun:_ZN12symbol_table7compileEv
   fun:_ZN12symbol_table25finalize_compilation_unitEv
   obj:/usr/lib/gcc/x86_64-linux-gnu/11/cc1
   fun:_ZN6toplev4mainEiPPc
   fun:main
}
{
   <insert_a_suppression_name_here>
   Memcheck:Leak
   match-leak-kinds: reachable
   fun:malloc
   fun:_ZN3gcc12pass_manager18register_pass_nameEP8opt_passPKc
   fun:_ZN3gcc12pass_manager22register_one_dump_fileEP8opt_pass
   fun:_ZN3gcc12pass_manager19register_dump_filesEP8opt_pass
   fun:_ZN3gcc12pass_manager19register_dump_filesEP8opt_pass
   fun:_ZN3gcc12pass_manager19register_dump_filesEP8opt_pass
   fun:_ZN3gcc12pass_manager19register_dump_filesEP8opt_pass
   fun:_ZN3gcc12pass_managerC1EPNS_7contextE
   fun:_ZN6toplev4mainEiPPc
   fun:main
}
{
   <insert_a_suppression_name_here>
   Memcheck:Leak
   match-leak-kinds: reachable
   fun:_Znwm
   fun:_Z28make_pass_warn_unused_resultPN3gcc7contextE
   fun:_ZN3gcc12pass_managerC1EPNS_7contextE
   fun:_ZN6toplev4mainEiPPc
   fun:main
}
{
   <insert_a_suppression_name_here>
   Memcheck:Leak
   match-leak-kinds: reachable
   fun:_Znwm
   fun:_Z29make_pass_diagnose_omp_blocksPN3gcc7contextE
   fun:_ZN3gcc12pass_managerC1EPNS_7contextE
   fun:_ZN6toplev4mainEiPPc
   fun:main
}
{
   <insert_a_suppression_name_here>
   Memcheck:Leak
   match-leak-kinds: reachable
   fun:_Znwm
   fun:_Z28make_pass_diagnose_tm_blocksPN3gcc7contextE
   fun:_ZN3gcc12pass_managerC1EPNS_7contextE
   fun:_ZN6toplev4mainEiPPc
   fun:main
}
{
   <insert_a_suppression_name_here>
   Memcheck:Leak
   match-leak-kinds: reachable
   fun:_Znwm
   fun:_Z36make_pass_omp_oacc_kernels_decomposePN3gcc7contextE
   fun:_ZN3gcc12pass_managerC1EPNS_7contextE
   fun:_ZN6toplev4mainEiPPc
   fun:main
}
{
   <insert_a_suppression_name_here>
   Memcheck:Leak
   match-leak-kinds: reachable
   fun:_Znwm
   fun:_Z19make_pass_lower_ompPN3gcc7contextE
   fun:_ZN3gcc12pass_managerC1EPNS_7contextE
   fun:_ZN6toplev4mainEiPPc
   fun:main
}
{
   <insert_a_suppression_name_here>
   Memcheck:Leak
   match-leak-kinds: reachable
   fun:_Znwm
   fun:_Z18make_pass_lower_cfPN3gcc7contextE
   fun:_ZN3gcc12pass_managerC1EPNS_7contextE
   fun:_ZN6toplev4mainEiPPc
   fun:main
}
{
   <insert_a_suppression_name_here>
   Memcheck:Leak
   match-leak-kinds: reachable
   fun:_Znwm
   fun:_Z18make_pass_lower_tmPN3gcc7contextE
   fun:_ZN3gcc12pass_managerC1EPNS_7contextE
   fun:_ZN6toplev4mainEiPPc
   fun:main
}
{
   <insert_a_suppression_name_here>
   Memcheck:Leak
   match-leak-kinds: reachable
   fun:_Znwm
   fun:_Z21make_pass_refactor_ehPN3gcc7contextE
   fun:_ZN3gcc12pass_managerC1EPNS_7contextE
   fun:_ZN6toplev4mainEiPPc
   fun:main
}
{
   <insert_a_suppression_name_here>
   Memcheck:Leak
   match-leak-kinds: reachable
   fun:_Znwm
   fun:_Z18make_pass_lower_ehPN3gcc7contextE
   fun:_ZN3gcc12pass_managerC1EPNS_7contextE
   fun:_ZN6toplev4mainEiPPc
   fun:main
}
{
   <insert_a_suppression_name_here>
   Memcheck:Leak
   match-leak-kinds: reachable
   fun:_Znwm
   fun:_Z34make_pass_coroutine_lower_builtinsPN3gcc7contextE
   fun:_ZN3gcc12pass_managerC1EPNS_7contextE
   fun:_ZN6toplev4mainEiPPc
   fun:main
}
{
   <insert_a_suppression_name_here>
   Memcheck:Leak
   match-leak-kinds: reachable
   fun:_Znwm
   fun:_Z19make_pass_build_cfgPN3gcc7contextE
   fun:_ZN3gcc12pass_managerC1EPNS_7contextE
   fun:_ZN6toplev4mainEiPPc
   fun:main
}
{
   <insert_a_suppression_name_here>
   Memcheck:Leak
   match-leak-kinds: reachable
   fun:_Znwm
   fun:_Z30make_pass_warn_function_returnPN3gcc7contextE
   fun:_ZN3gcc12pass_managerC1EPNS_7contextE
   fun:_ZN6toplev4mainEiPPc
   fun:main
}
{
   <insert_a_suppression_name_here>
   Memcheck:Leak
   match-leak-kinds: reachable
   fun:_Znwm
   fun:_Z37make_pass_coroutine_early_expand_ifnsPN3gcc7contextE
   fun:_ZN3gcc12pass_managerC1EPNS_7contextE
   fun:_ZN6toplev4mainEiPPc
   fun:main
}
{
   <insert_a_suppression_name_here>
   Memcheck:Leak
   match-leak-kinds: reachable
   fun:_Znwm
   fun:_Z20make_pass_expand_ompPN3gcc7contextE
   fun:_ZN3gcc12pass_managerC1EPNS_7contextE
   fun:_ZN6toplev4mainEiPPc
   fun:main
}
{
   <insert_a_suppression_name_here>
   Memcheck:Leak
   match-leak-kinds: reachable
   fun:_Znwm
   fun:_Z21make_pass_warn_printfPN3gcc7contextE
   fun:_ZN3gcc12pass_managerC1EPNS_7contextE
   fun:_ZN6toplev4mainEiPPc
   fun:main
}
{
   <insert_a_suppression_name_here>
   Memcheck:Leak
   match-leak-kinds: reachable
   fun:_Znwm
   fun:_Z28make_pass_build_cgraph_edgesPN3gcc7contextE
   fun:_ZN3gcc12pass_managerC1EPNS_7contextE
   fun:_ZN6toplev4mainEiPPc
   fun:main
}
{
   <insert_a_suppression_name_here>
   Memcheck:Leak
   match-leak-kinds: reachable
   fun:_Znwm
   fun:_Z28make_pass_ipa_free_lang_dataPN3gcc7contextE
   fun:_ZN3gcc12pass_managerC1EPNS_7contextE
   fun:_ZN6toplev4mainEiPPc
   fun:main
}
{
   <insert_a_suppression_name_here>
   Memcheck:Leak
   match-leak-kinds: reachable
   fun:_Znwm
   fun:_Z46make_pass_ipa_function_and_variable_visibilityPN3gcc7contextE
   fun:_ZN3gcc12pass_managerC1EPNS_7contextE
   fun:_ZN6toplev4mainEiPPc
   fun:main
}
{
   <insert_a_suppression_name_here>
   Memcheck:Leak
   match-leak-kinds: reachable
   fun:_Znwm
   fun:_Z26make_pass_build_ssa_passesPN3gcc7contextE
   fun:_ZN3gcc12pass_managerC1EPNS_7contextE
   fun:_ZN6toplev4mainEiPPc
   fun:main
}
{
   <insert_a_suppression_name_here>
   Memcheck:Leak
   match-leak-kinds: reachable
   fun:_Znwm
   fun:_Z19make_pass_fixup_cfgPN3gcc7contextE
   fun:_ZN3gcc12pass_managerC1EPNS_7contextE
   fun:_ZN6toplev4mainEiPPc
   fun:main
}
{
   <insert_a_suppression_name_here>
   Memcheck:Leak
   match-leak-kinds: reachable
   fun:_Znwm
   fun:_Z19make_pass_build_ssaPN3gcc7contextE
   fun:_ZN3gcc12pass_managerC1EPNS_7contextE
   fun:_ZN6toplev4mainEiPPc
   fun:main
}
{
   <insert_a_suppression_name_here>
   Memcheck:Leak
   match-leak-kinds: reachable
   fun:_Znwm
   fun:_Z30make_pass_warn_nonnull_comparePN3gcc7contextE
   fun:_ZN3gcc12pass_managerC1EPNS_7contextE
   fun:_ZN6toplev4mainEiPPc
   fun:main
}
{
   <insert_a_suppression_name_here>
   Memcheck:Leak
   match-leak-kinds: reachable
   fun:_Znwm
   fun:_Z34make_pass_early_warn_uninitializedPN3gcc7contextE
   fun:_ZN3gcc12pass_managerC1EPNS_7contextE
   fun:_ZN6toplev4mainEiPPc
   fun:main
}
{
   <insert_a_suppression_name_here>
   Memcheck:Leak
   match-leak-kinds: reachable
   fun:_Znwm
   fun:_Z15make_pass_ubsanPN3gcc7contextE
   fun:_ZN3gcc12pass_managerC1EPNS_7contextE
   fun:_ZN6toplev4mainEiPPc
   fun:main
}
{
   <insert_a_suppression_name_here>
   Memcheck:Leak
   match-leak-kinds: reachable
   fun:_Znwm
   fun:_Z17make_pass_nothrowPN3gcc7contextE
   fun:_ZN3gcc12pass_managerC1EPNS_7contextE
   fun:_ZN6toplev4mainEiPPc
   fun:main
}
{
   <insert_a_suppression_name_here>
   Memcheck:Leak
   match-leak-kinds: reachable
   fun:_Znwm
   fun:_Z30make_pass_rebuild_cgraph_edgesPN3gcc7contextE
   fun:_ZN3gcc12pass_managerC1EPNS_7contextE
   fun:_ZN6toplev4mainEiPPc
   fun:main
}
{
   <insert_a_suppression_name_here>
   Memcheck:Leak
   match-leak-kinds: reachable
   fun:_Znwm
   fun:_Z35make_pass_local_optimization_passesPN3gcc7contextE
   fun:_ZN3gcc12pass_managerC1EPNS_7contextE
   fun:_ZN6toplev4mainEiPPc
   fun:main
}
{
   <insert_a_suppression_name_here>
   Memcheck:Leak
   match-leak-kinds: reachable
   fun:_Znwm
   obj:/usr/lib/gcc/x86_64-linux-gnu/11/cc1
   fun:_ZN3gcc12pass_managerC1EPNS_7contextE
   fun:_ZN6toplev4mainEiPPc
   fun:main
}
{
   <insert_a_suppression_name_here>
   Memcheck:Leak
   match-leak-kinds: reachable
   fun:_Znwm
   fun:_Z26make_pass_local_fn_summaryPN3gcc7contextE
   fun:_ZN3gcc12pass_managerC1EPNS_7contextE
   fun:_ZN6toplev4mainEiPPc
   fun:main
}
{
   <insert_a_suppression_name_here>
   Memcheck:Leak
   match-leak-kinds: reachable
   fun:_Znwm
   fun:_Z22make_pass_early_inlinePN3gcc7contextE
   fun:_ZN3gcc12pass_managerC1EPNS_7contextE
   fun:_ZN6toplev4mainEiPPc
   fun:main
}
{
   <insert_a_suppression_name_here>
   Memcheck:Leak
   match-leak-kinds: reachable
   fun:_Znwm
   fun:_ZN3gcc12pass_managerC1EPNS_7contextE
   fun:_ZN6toplev4mainEiPPc
   fun:main
}
{
   <insert_a_suppression_name_here>
   Memcheck:Leak
   match-leak-kinds: reachable
   fun:_Znwm
   fun:_Z36make_pass_remove_cgraph_callee_edgesPN3gcc7contextE
   fun:_ZN3gcc12pass_managerC1EPNS_7contextE
   fun:_ZN6toplev4mainEiPPc
   fun:main
}
{
   <insert_a_suppression_name_here>
   Memcheck:Leak
   match-leak-kinds: reachable
   fun:_Znwm
   fun:_Z18make_pass_forwpropPN3gcc7contextE
   fun:_ZN3gcc12pass_managerC1EPNS_7contextE
   fun:_ZN6toplev4mainEiPPc
   fun:main
}
{
   <insert_a_suppression_name_here>
   Memcheck:Leak
   match-leak-kinds: reachable
   fun:_Znwm
   fun:_Z28make_pass_early_thread_jumpsPN3gcc7contextE
   fun:_ZN3gcc12pass_managerC1EPNS_7contextE
   fun:_ZN6toplev4mainEiPPc
   fun:main
}
{
   <insert_a_suppression_name_here>
   Memcheck:Leak
   match-leak-kinds: reachable
   fun:_Znwm
   fun:_Z19make_pass_sra_earlyPN3gcc7contextE
   fun:_ZN3gcc12pass_managerC1EPNS_7contextE
   fun:_ZN6toplev4mainEiPPc
   fun:main
}
{
   <insert_a_suppression_name_here>
   Memcheck:Leak
   match-leak-kinds: reachable
   fun:_Znwm
   fun:_Z22make_pass_build_ealiasPN3gcc7contextE
   fun:_ZN3gcc12pass_managerC1EPNS_7contextE
   fun:_ZN6toplev4mainEiPPc
   fun:main
}
{
   <insert_a_suppression_name_here>
   Memcheck:Leak
   match-leak-kinds: reachable
   fun:_Znwm
   fun:_Z19make_pass_early_vrpPN3gcc7contextE
   fun:_ZN3gcc12pass_managerC1EPNS_7contextE
   fun:_ZN6toplev4mainEiPPc
   fun:main
}
{
   <insert_a_suppression_name_here>
   Memcheck:Leak
   match-leak-kinds: reachable
   fun:_Znwm
   fun:_Z19make_pass_merge_phiPN3gcc7contextE
   fun:_ZN3gcc12pass_managerC1EPNS_7contextE
   fun:_ZN6toplev4mainEiPPc
   fun:main
}
{
   <insert_a_suppression_name_here>
   Memcheck:Leak
   match-leak-kinds: reachable
   fun:_Znwm
   fun:_Z13make_pass_dsePN3gcc7contextE
   fun:_ZN3gcc12pass_managerC1EPNS_7contextE
   fun:_ZN6toplev4mainEiPPc
   fun:main
}
{
   <insert_a_suppression_name_here>
   Memcheck:Leak
   match-leak-kinds: reachable
   fun:_Znwm
   fun:_Z16make_pass_modrefPN3gcc7contextE
   fun:_ZN3gcc12pass_managerC1EPNS_7contextE
   fun:_ZN6toplev4mainEiPPc
   fun:main
}
{
   <insert_a_suppression_name_here>
   Memcheck:Leak
   match-leak-kinds: reachable
   fun:_Znwm
   fun:_Z24make_pass_tail_recursionPN3gcc7contextE
   fun:_ZN3gcc12pass_managerC1EPNS_7contextE
   fun:_ZN6toplev4mainEiPPc
   fun:main
}
{
   <insert_a_suppression_name_here>
   Memcheck:Leak
   match-leak-kinds: reachable
   fun:_Znwm
   fun:_Z22make_pass_if_to_switchPN3gcc7contextE
   fun:_ZN3gcc12pass_managerC1EPNS_7contextE
   fun:_ZN6toplev4mainEiPPc
   fun:main
}
{
   <insert_a_suppression_name_here>
   Memcheck:Leak
   match-leak-kinds: reachable
   fun:_Znwm
   fun:_Z24make_pass_convert_switchPN3gcc7contextE
   fun:_ZN3gcc12pass_managerC1EPNS_7contextE
   fun:_ZN6toplev4mainEiPPc
   fun:main
}
{
   <insert_a_suppression_name_here>
   Memcheck:Leak
   match-leak-kinds: reachable
   fun:_Znwm
   fun:_Z20make_pass_cleanup_ehPN3gcc7contextE
   fun:_ZN3gcc12pass_managerC1EPNS_7contextE
   fun:_ZN6toplev4mainEiPPc
   fun:main
}
{
   <insert_a_suppression_name_here>
   Memcheck:Leak
   match-leak-kinds: reachable
   fun:_Znwm
   fun:_Z17make_pass_profilePN3gcc7contextE
   fun:_ZN3gcc12pass_managerC1EPNS_7contextE
   fun:_ZN6toplev4mainEiPPc
   fun:main
}
{
   <insert_a_suppression_name_here>
   Memcheck:Leak
   match-leak-kinds: reachable
   fun:_Znwm
   fun:_Z26make_pass_local_pure_constPN3gcc7contextE
   fun:_ZN3gcc12pass_managerC1EPNS_7contextE
   fun:_ZN6toplev4mainEiPPc
   fun:main
}
{
   <insert_a_suppression_name_here>
   Memcheck:Leak
   match-leak-kinds: reachable
   fun:_Znwm
   fun:_Z25make_pass_split_functionsPN3gcc7contextE
   fun:_ZN3gcc12pass_managerC1EPNS_7contextE
   fun:_ZN6toplev4mainEiPPc
   fun:main
}
{
   <insert_a_suppression_name_here>
   Memcheck:Leak
   match-leak-kinds: reachable
   fun:_Znwm
   fun:_Z27make_pass_release_ssa_namesPN3gcc7contextE
   fun:_ZN3gcc12pass_managerC1EPNS_7contextE
   fun:_ZN6toplev4mainEiPPc
   fun:main
}
{
   <insert_a_suppression_name_here>
   Memcheck:Leak
   match-leak-kinds: reachable
   fun:_Znwm
   fun:_Z28make_pass_ipa_remove_symbolsPN3gcc7contextE
   fun:_ZN3gcc12pass_managerC1EPNS_7contextE
   fun:_ZN6toplev4mainEiPPc
   fun:main
}
{
   <insert_a_suppression_name_here>
   Memcheck:Leak
   match-leak-kinds: reachable
   fun:_Znwm
   fun:_Z18make_pass_ipa_oaccPN3gcc7contextE
   fun:_ZN3gcc12pass_managerC1EPNS_7contextE
   fun:_ZN6toplev4mainEiPPc
   fun:main
}
{
   <insert_a_suppression_name_here>
   Memcheck:Leak
   match-leak-kinds: reachable
   fun:_Znwm
   fun:_Z17make_pass_ipa_ptaPN3gcc7contextE
   fun:_ZN3gcc12pass_managerC1EPNS_7contextE
   fun:_ZN6toplev4mainEiPPc
   fun:main
}
{
   <insert_a_suppression_name_here>
   Memcheck:Leak
   match-leak-kinds: reachable
   fun:_Znwm
   fun:_Z26make_pass_ipa_oacc_kernelsPN3gcc7contextE
   fun:_ZN3gcc12pass_managerC1EPNS_7contextE
   fun:_ZN6toplev4mainEiPPc
   fun:main
}
{
   <insert_a_suppression_name_here>
   Memcheck:Leak
   match-leak-kinds: reachable
   fun:_Znwm
   fun:_Z22make_pass_oacc_kernelsPN3gcc7contextE
   fun:_ZN3gcc12pass_managerC1EPNS_7contextE
   fun:_ZN6toplev4mainEiPPc
   fun:main
}
{
   <insert_a_suppression_name_here>
   Memcheck:Leak
   match-leak-kinds: reachable
   fun:_Znwm
   fun:_Z12make_pass_chPN3gcc7contextE
   fun:_ZN3gcc12pass_managerC1EPNS_7contextE
   fun:_ZN6toplev4mainEiPPc
   fun:main
}
{
   <insert_a_suppression_name_here>
   Memcheck:Leak
   match-leak-kinds: reachable
   fun:_Znwm
   fun:_Z13make_pass_limPN3gcc7contextE
   fun:_ZN3gcc12pass_managerC1EPNS_7contextE
   fun:_ZN6toplev4mainEiPPc
   fun:main
}
{
   <insert_a_suppression_name_here>
   Memcheck:Leak
   match-leak-kinds: reachable
   fun:_Znwm
   fun:_Z13make_pass_dcePN3gcc7contextE
   fun:_ZN3gcc12pass_managerC1EPNS_7contextE
   fun:_ZN6toplev4mainEiPPc
   fun:main
}
{
   <insert_a_suppression_name_here>
   Memcheck:Leak
   match-leak-kinds: reachable
   fun:_Znwm
   fun:_Z24make_pass_expand_omp_ssaPN3gcc7contextE
   fun:_ZN3gcc12pass_managerC1EPNS_7contextE
   fun:_ZN6toplev4mainEiPPc
   fun:main
}
{
   <insert_a_suppression_name_here>
   Memcheck:Leak
   match-leak-kinds: reachable
   fun:_Znwm
   fun:_Z22make_pass_target_clonePN3gcc7contextE
   fun:_ZN3gcc12pass_managerC1EPNS_7contextE
   fun:_ZN6toplev4mainEiPPc
   fun:main
}
{
   <insert_a_suppression_name_here>
   Memcheck:Leak
   match-leak-kinds: reachable
   fun:_Znwm
   fun:_Z26make_pass_ipa_auto_profilePN3gcc7contextE
   fun:_ZN3gcc12pass_managerC1EPNS_7contextE
   fun:_ZN6toplev4mainEiPPc
   fun:main
}
{
   <insert_a_suppression_name_here>
   Memcheck:Leak
   match-leak-kinds: reachable
   fun:_Znwm
   fun:_Z26make_pass_ipa_tree_profilePN3gcc7contextE
   fun:_ZN3gcc12pass_managerC1EPNS_7contextE
   fun:_ZN6toplev4mainEiPPc
   fun:main
}
{
   <insert_a_suppression_name_here>
   Memcheck:Leak
   match-leak-kinds: reachable
   fun:_Znwm
   fun:_Z34make_pass_feedback_split_functionsPN3gcc7contextE
   fun:_ZN3gcc12pass_managerC1EPNS_7contextE
   fun:_ZN6toplev4mainEiPPc
   fun:main
}
{
   <insert_a_suppression_name_here>
   Memcheck:Leak
   match-leak-kinds: reachable
   fun:_Znwm
   fun:_Z32make_pass_ipa_increase_alignmentPN3gcc7contextE
   fun:_ZN3gcc12pass_managerC1EPNS_7contextE
   fun:_ZN6toplev4mainEiPPc
   fun:main
}
{
   <insert_a_suppression_name_here>
   Memcheck:Leak
   match-leak-kinds: reachable
   fun:_Znwm
   fun:_Z16make_pass_ipa_tmPN3gcc7contextE
   fun:_ZN3gcc12pass_managerC1EPNS_7contextE
   fun:_ZN6toplev4mainEiPPc
   fun:main
}
{
   <insert_a_suppression_name_here>
   Memcheck:Leak
   match-leak-kinds: reachable
   fun:_Znwm
   fun:_Z26make_pass_ipa_lower_emutlsPN3gcc7contextE
   fun:_ZN3gcc12pass_managerC1EPNS_7contextE
   fun:_ZN6toplev4mainEiPPc
   fun:main
}
{
   <insert_a_suppression_name_here>
   Memcheck:Leak
   match-leak-kinds: reachable
   fun:_Znwm
   fun:_Z24make_pass_omp_simd_clonePN3gcc7contextE
   fun:_ZN3gcc12pass_managerC1EPNS_7contextE
   fun:_ZN6toplev4mainEiPPc
   fun:main
}
{
   <insert_a_suppression_name_here>
   Memcheck:Leak
   match-leak-kinds: reachable
   fun:_Znwm
   fun:_Z27make_pass_lower_eh_dispatchPN3gcc7contextE
   fun:_ZN3gcc12pass_managerC1EPNS_7contextE
   fun:_ZN6toplev4mainEiPPc
   fun:main
}
{
   <insert_a_suppression_name_here>
   Memcheck:Leak
   match-leak-kinds: reachable
   fun:_Znwm
   fun:_Z27make_pass_oacc_device_lowerPN3gcc7contextE
   fun:_ZN3gcc12pass_managerC1EPNS_7contextE
   fun:_ZN6toplev4mainEiPPc
   fun:main
}
{
   <insert_a_suppression_name_here>
   Memcheck:Leak
   match-leak-kinds: reachable
   fun:_Znwm
   fun:_Z26make_pass_omp_device_lowerPN3gcc7contextE
   fun:_ZN3gcc12pass_managerC1EPNS_7contextE
   fun:_ZN6toplev4mainEiPPc
   fun:main
}
{
   <insert_a_suppression_name_here>
   Memcheck:Leak
   match-leak-kinds: reachable
   fun:_Znwm
   fun:_Z25make_pass_omp_target_linkPN3gcc7contextE
   fun:_ZN3gcc12pass_managerC1EPNS_7contextE
   fun:_ZN6toplev4mainEiPPc
   fun:main
}
{
   <insert_a_suppression_name_here>
   Memcheck:Leak
   match-leak-kinds: reachable
   fun:_Znwm
   fun:_Z26make_pass_adjust_alignmentPN3gcc7contextE
   fun:_ZN3gcc12pass_managerC1EPNS_7contextE
   fun:_ZN6toplev4mainEiPPc
   fun:main
}
{
   <insert_a_suppression_name_here>
   Memcheck:Leak
   match-leak-kinds: reachable
   fun:_Znwm
   fun:_Z23make_pass_post_ipa_warnPN3gcc7contextE
   fun:_ZN3gcc12pass_managerC1EPNS_7contextE
   fun:_ZN6toplev4mainEiPPc
   fun:main
}
{
   <insert_a_suppression_name_here>
   Memcheck:Leak
   match-leak-kinds: reachable
   fun:_Znwm
   fun:_Z26make_pass_complete_unrolliPN3gcc7contextE
   fun:_ZN3gcc12pass_managerC1EPNS_7contextE
   fun:_ZN6toplev4mainEiPPc
   fun:main
}
{
   <insert_a_suppression_name_here>
   Memcheck:Leak
   match-leak-kinds: reachable
   fun:_Znwm
   fun:_Z18make_pass_backpropPN3gcc7contextE
   fun:_ZN3gcc12pass_managerC1EPNS_7contextE
   fun:_ZN6toplev4mainEiPPc
   fun:main
}
{
   <insert_a_suppression_name_here>
   Memcheck:Leak
   match-leak-kinds: reachable
   fun:_Znwm
   fun:_Z17make_pass_phipropPN3gcc7contextE
   fun:_ZN3gcc12pass_managerC1EPNS_7contextE
   fun:_ZN6toplev4mainEiPPc
   fun:main
}
{
   <insert_a_suppression_name_here>
   Memcheck:Leak
   match-leak-kinds: reachable
   fun:_Znwm
   fun:_Z21make_pass_build_aliasPN3gcc7contextE
   fun:_ZN3gcc12pass_managerC1EPNS_7contextE
   fun:_ZN6toplev4mainEiPPc
   fun:main
}
{
   <insert_a_suppression_name_here>
   Memcheck:Leak
   match-leak-kinds: reachable
   fun:_Znwm
   fun:_Z21make_pass_return_slotPN3gcc7contextE
   fun:_ZN3gcc12pass_managerC1EPNS_7contextE
   fun:_ZN6toplev4mainEiPPc
   fun:main
}
{
   <insert_a_suppression_name_here>
   Memcheck:Leak
   match-leak-kinds: reachable
   fun:_Znwm
   fun:_Z22make_pass_thread_jumpsPN3gcc7contextE
   fun:_ZN3gcc12pass_managerC1EPNS_7contextE
   fun:_ZN6toplev4mainEiPPc
   fun:main
}
{
   <insert_a_suppression_name_here>
   Memcheck:Leak
   match-leak-kinds: reachable
   fun:_Znwm
   fun:_Z16make_pass_stdargPN3gcc7contextE
   fun:_ZN3gcc12pass_managerC1EPNS_7contextE
   fun:_ZN6toplev4mainEiPPc
   fun:main
}
{
   <insert_a_suppression_name_here>
   Memcheck:Leak
   match-leak-kinds: reachable
   fun:_Znwm
   fun:_Z19make_pass_call_cdcePN3gcc7contextE
   fun:_ZN3gcc12pass_managerC1EPNS_7contextE
   fun:_ZN6toplev4mainEiPPc
   fun:main
}
{
   <insert_a_suppression_name_here>
   Memcheck:Leak
   match-leak-kinds: reachable
   fun:_Znwm
   fun:_Z16make_pass_cselimPN3gcc7contextE
   fun:_ZN3gcc12pass_managerC1EPNS_7contextE
   fun:_ZN6toplev4mainEiPPc
   fun:main
}
{
   <insert_a_suppression_name_here>
   Memcheck:Leak
   match-leak-kinds: reachable
   fun:_Znwm
   fun:_Z19make_pass_copy_propPN3gcc7contextE
   fun:_ZN3gcc12pass_managerC1EPNS_7contextE
   fun:_ZN6toplev4mainEiPPc
   fun:main
}
{
   <insert_a_suppression_name_here>
   Memcheck:Leak
   match-leak-kinds: reachable
   fun:_Znwm
   fun:_Z24make_pass_tree_ifcombinePN3gcc7contextE
   fun:_ZN3gcc12pass_managerC1EPNS_7contextE
   fun:_ZN6toplev4mainEiPPc
   fun:main
}
{
   <insert_a_suppression_name_here>
   Memcheck:Leak
   match-leak-kinds: reachable
   fun:_Znwm
   fun:_Z23make_pass_lower_complexPN3gcc7contextE
   fun:_ZN3gcc12pass_managerC1EPNS_7contextE
   fun:_ZN6toplev4mainEiPPc
   fun:main
}
{
   <insert_a_suppression_name_here>
   Memcheck:Leak
   match-leak-kinds: reachable
   fun:_Znwm
   fun:_Z13make_pass_sraPN3gcc7contextE
   fun:_ZN3gcc12pass_managerC1EPNS_7contextE
   fun:_ZN6toplev4mainEiPPc
   fun:main
}
{
   <insert_a_suppression_name_here>
   Memcheck:Leak
   match-leak-kinds: reachable
   fun:_Znwm
   fun:_Z33make_pass_isolate_erroneous_pathsPN3gcc7contextE
   fun:_ZN3gcc12pass_managerC1EPNS_7contextE
   fun:_ZN6toplev4mainEiPPc
   fun:main
}
{
   <insert_a_suppression_name_here>
   Memcheck:Leak
   match-leak-kinds: reachable
   fun:_Znwm
   fun:_Z20make_pass_cse_sincosPN3gcc7contextE
   fun:_ZN3gcc12pass_managerC1EPNS_7contextE
   fun:_ZN6toplev4mainEiPPc
   fun:main
}
{
   <insert_a_suppression_name_here>
   Memcheck:Leak
   match-leak-kinds: reachable
   fun:_Znwm
   fun:_Z24make_pass_optimize_bswapPN3gcc7contextE
   fun:_ZN3gcc12pass_managerC1EPNS_7contextE
   fun:_ZN6toplev4mainEiPPc
   fun:main
}
{
   <insert_a_suppression_name_here>
   Memcheck:Leak
   match-leak-kinds: reachable
   fun:_Znwm
   fun:_Z18make_pass_laddressPN3gcc7contextE
   fun:_ZN3gcc12pass_managerC1EPNS_7contextE
   fun:_ZN6toplev4mainEiPPc
   fun:main
}
{
   <insert_a_suppression_name_here>
   Memcheck:Leak
   match-leak-kinds: reachable
   fun:_Znwm
   fun:_Z13make_pass_prePN3gcc7contextE
   fun:_ZN3gcc12pass_managerC1EPNS_7contextE
   fun:_ZN6toplev4mainEiPPc
   fun:main
}
{
   <insert_a_suppression_name_here>
   Memcheck:Leak
   match-leak-kinds: reachable
   fun:_Znwm
   fun:_Z19make_pass_sink_codePN3gcc7contextE
   fun:_ZN3gcc12pass_managerC1EPNS_7contextE
   fun:_ZN6toplev4mainEiPPc
   fun:main
}
{
   <insert_a_suppression_name_here>
   Memcheck:Leak
   match-leak-kinds: reachable
   fun:_Znwm
   fun:_Z16make_pass_sancovPN3gcc7contextE
   fun:_ZN3gcc12pass_managerC1EPNS_7contextE
   fun:_ZN6toplev4mainEiPPc
   fun:main
}
{
   <insert_a_suppression_name_here>
   Memcheck:Leak
   match-leak-kinds: reachable
   fun:_Znwm
   fun:_Z14make_pass_asanPN3gcc7contextE
   fun:_ZN3gcc12pass_managerC1EPNS_7contextE
   fun:_ZN6toplev4mainEiPPc
   fun:main
}
{
   <insert_a_suppression_name_here>
   Memcheck:Leak
   match-leak-kinds: reachable
   fun:_Znwm
   fun:_Z14make_pass_tsanPN3gcc7contextE
   fun:_ZN3gcc12pass_managerC1EPNS_7contextE
   fun:_ZN6toplev4mainEiPPc
   fun:main
}
{
   <insert_a_suppression_name_here>
   Memcheck:Leak
   match-leak-kinds: reachable
   fun:_Znwm
   fun:_Z19make_pass_fix_loopsPN3gcc7contextE
   fun:_ZN3gcc12pass_managerC1EPNS_7contextE
   fun:_ZN6toplev4mainEiPPc
   fun:main
}
{
   <insert_a_suppression_name_here>
   Memcheck:Leak
   match-leak-kinds: reachable
   fun:_Znwm
   fun:_Z19make_pass_tree_loopPN3gcc7contextE
   fun:_ZN3gcc12pass_managerC1EPNS_7contextE
   fun:_ZN6toplev4mainEiPPc
   fun:main
}
{
   <insert_a_suppression_name_here>
   Memcheck:Leak
   match-leak-kinds: reachable
   fun:_Znwm
   fun:_Z24make_pass_tree_loop_initPN3gcc7contextE
   fun:_ZN3gcc12pass_managerC1EPNS_7contextE
   fun:_ZN6toplev4mainEiPPc
   fun:main
}
{
   <insert_a_suppression_name_here>
   Memcheck:Leak
   match-leak-kinds: reachable
   fun:_Znwm
   fun:_Z23make_pass_tree_unswitchPN3gcc7contextE
   fun:_ZN3gcc12pass_managerC1EPNS_7contextE
   fun:_ZN6toplev4mainEiPPc
   fun:main
}
{
   <insert_a_suppression_name_here>
   Memcheck:Leak
   match-leak-kinds: reachable
   fun:_Znwm
   fun:_Z20make_pass_scev_cpropPN3gcc7contextE
   fun:_ZN3gcc12pass_managerC1EPNS_7contextE
   fun:_ZN6toplev4mainEiPPc
   fun:main
}
{
   <insert_a_suppression_name_here>
   Memcheck:Leak
   match-leak-kinds: reachable
   fun:_Znwm
   fun:_Z20make_pass_loop_splitPN3gcc7contextE
   fun:_ZN3gcc12pass_managerC1EPNS_7contextE
   fun:_ZN6toplev4mainEiPPc
   fun:main
}
{
   <insert_a_suppression_name_here>
   Memcheck:Leak
   match-leak-kinds: reachable
   fun:_Znwm
   fun:_Z25make_pass_loop_versioningPN3gcc7contextE
   fun:_ZN3gcc12pass_managerC1EPNS_7contextE
   fun:_ZN6toplev4mainEiPPc
   fun:main
}
{
   <insert_a_suppression_name_here>
   Memcheck:Leak
   match-leak-kinds: reachable
   fun:_Znwm
   fun:_Z18make_pass_loop_jamPN3gcc7contextE
   fun:_ZN3gcc12pass_managerC1EPNS_7contextE
   fun:_ZN6toplev4mainEiPPc
   fun:main
}
{
   <insert_a_suppression_name_here>
   Memcheck:Leak
   match-leak-kinds: reachable
   fun:_Znwm
   fun:_Z18make_pass_iv_canonPN3gcc7contextE
   fun:_ZN3gcc12pass_managerC1EPNS_7contextE
   fun:_ZN6toplev4mainEiPPc
   fun:main
}
{
   <insert_a_suppression_name_here>
   Memcheck:Leak
   match-leak-kinds: reachable
   fun:_Znwm
   fun:_Z27make_pass_loop_distributionPN3gcc7contextE
   fun:_ZN3gcc12pass_managerC1EPNS_7contextE
   fun:_ZN6toplev4mainEiPPc
   fun:main
}
{
   <insert_a_suppression_name_here>
   Memcheck:Leak
   match-leak-kinds: reachable
   fun:_Znwm
   fun:_Z22make_pass_linterchangePN3gcc7contextE
   fun:_ZN3gcc12pass_managerC1EPNS_7contextE
   fun:_ZN6toplev4mainEiPPc
   fun:main
}
{
   <insert_a_suppression_name_here>
   Memcheck:Leak
   match-leak-kinds: reachable
   fun:_Znwm
   fun:_Z18make_pass_graphitePN3gcc7contextE
   fun:_ZN3gcc12pass_managerC1EPNS_7contextE
   fun:_ZN6toplev4mainEiPPc
   fun:main
}
{
   <insert_a_suppression_name_here>
   Memcheck:Leak
   match-leak-kinds: reachable
   fun:_Znwm
   fun:_Z29make_pass_graphite_transformsPN3gcc7contextE
   fun:_ZN3gcc12pass_managerC1EPNS_7contextE
   fun:_ZN6toplev4mainEiPPc
   fun:main
}
{
   <insert_a_suppression_name_here>
   Memcheck:Leak
   match-leak-kinds: reachable
   fun:_Znwm
   fun:_Z17make_pass_ch_vectPN3gcc7contextE
   fun:_ZN3gcc12pass_managerC1EPNS_7contextE
   fun:_ZN6toplev4mainEiPPc
   fun:main
}
{
   <insert_a_suppression_name_here>
   Memcheck:Leak
   match-leak-kinds: reachable
   fun:_Znwm
   fun:_Z23make_pass_if_conversionPN3gcc7contextE
   fun:_ZN3gcc12pass_managerC1EPNS_7contextE
   fun:_ZN6toplev4mainEiPPc
   fun:main
}
{
   <insert_a_suppression_name_here>
   Memcheck:Leak
   match-leak-kinds: reachable
   fun:_Znwm
   fun:_Z19make_pass_vectorizePN3gcc7contextE
   fun:_ZN3gcc12pass_managerC1EPNS_7contextE
   fun:_ZN6toplev4mainEiPPc
   fun:main
}
{
   <insert_a_suppression_name_here>
   Memcheck:Leak
   match-leak-kinds: reachable
   fun:_Znwm
   fun:_Z17make_pass_predcomPN3gcc7contextE
   fun:_ZN3gcc12pass_managerC1EPNS_7contextE
   fun:_ZN6toplev4mainEiPPc
   fun:main
}
{
   <insert_a_suppression_name_here>
   Memcheck:Leak
   match-leak-kinds: reachable
   fun:_Znwm
   fun:_Z25make_pass_complete_unrollPN3gcc7contextE
   fun:_ZN3gcc12pass_managerC1EPNS_7contextE
   fun:_ZN6toplev4mainEiPPc
   fun:main
}
{
   <insert_a_suppression_name_here>
   Memcheck:Leak
   match-leak-kinds: reachable
   fun:_Znwm
   fun:_Z32make_pass_pre_slp_scalar_cleanupPN3gcc7contextE
   fun:_ZN3gcc12pass_managerC1EPNS_7contextE
   fun:_ZN6toplev4mainEiPPc
   fun:main
}
{
   <insert_a_suppression_name_here>
   Memcheck:Leak
   match-leak-kinds: reachable
   fun:_Znwm
   fun:_Z23make_pass_slp_vectorizePN3gcc7contextE
   fun:_ZN3gcc12pass_managerC1EPNS_7contextE
   fun:_ZN6toplev4mainEiPPc
   fun:main
}
{
   <insert_a_suppression_name_here>
   Memcheck:Leak
   match-leak-kinds: reachable
   fun:_Znwm
   fun:_Z23make_pass_loop_prefetchPN3gcc7contextE
   fun:_ZN3gcc12pass_managerC1EPNS_7contextE
   fun:_ZN6toplev4mainEiPPc
   fun:main
}
{
   <insert_a_suppression_name_here>
   Memcheck:Leak
   match-leak-kinds: reachable
   fun:_Znwm
   fun:_Z21make_pass_iv_optimizePN3gcc7contextE
   fun:_ZN3gcc12pass_managerC1EPNS_7contextE
   fun:_ZN6toplev4mainEiPPc
   fun:main
}
{
   <insert_a_suppression_name_here>
   Memcheck:Leak
   match-leak-kinds: reachable
   fun:_Znwm
   fun:_Z24make_pass_tree_loop_donePN3gcc7contextE
   fun:_ZN3gcc12pass_managerC1EPNS_7contextE
   fun:_ZN6toplev4mainEiPPc
   fun:main
}
{
   <insert_a_suppression_name_here>
   Memcheck:Leak
   match-leak-kinds: reachable
   fun:_Znwm
   fun:_Z22make_pass_tree_no_loopPN3gcc7contextE
   fun:_ZN3gcc12pass_managerC1EPNS_7contextE
   fun:_ZN6toplev4mainEiPPc
   fun:main
}
{
   <insert_a_suppression_name_here>
   Memcheck:Leak
   match-leak-kinds: reachable
   fun:_Znwm
   fun:_Z25make_pass_simduid_cleanupPN3gcc7contextE
   fun:_ZN3gcc12pass_managerC1EPNS_7contextE
   fun:_ZN6toplev4mainEiPPc
   fun:main
}
{
   <insert_a_suppression_name_here>
   Memcheck:Leak
   match-leak-kinds: reachable
   fun:_Znwm
   fun:_Z26make_pass_lower_vector_ssaPN3gcc7contextE
   fun:_ZN3gcc12pass_managerC1EPNS_7contextE
   fun:_ZN6toplev4mainEiPPc
   fun:main
}
{
   <insert_a_suppression_name_here>
   Memcheck:Leak
   match-leak-kinds: reachable
   fun:_Znwm
   fun:_Z22make_pass_lower_switchPN3gcc7contextE
   fun:_ZN3gcc12pass_managerC1EPNS_7contextE
   fun:_ZN6toplev4mainEiPPc
   fun:main
}
{
   <insert_a_suppression_name_here>
   Memcheck:Leak
   match-leak-kinds: reachable
   fun:_Znwm
   fun:_Z25make_pass_cse_reciprocalsPN3gcc7contextE
   fun:_ZN3gcc12pass_managerC1EPNS_7contextE
   fun:_ZN6toplev4mainEiPPc
   fun:main
}
{
   <insert_a_suppression_name_here>
   Memcheck:Leak
   match-leak-kinds: reachable
   fun:_Znwm
   fun:_Z28make_pass_strength_reductionPN3gcc7contextE
   fun:_ZN3gcc12pass_managerC1EPNS_7contextE
   fun:_ZN6toplev4mainEiPPc
   fun:main
}
{
   <insert_a_suppression_name_here>
   Memcheck:Leak
   match-leak-kinds: reachable
   fun:_Znwm
   fun:_Z21make_pass_split_pathsPN3gcc7contextE
   fun:_ZN3gcc12pass_managerC1EPNS_7contextE
   fun:_ZN6toplev4mainEiPPc
   fun:main
}
{
   <insert_a_suppression_name_here>
   Memcheck:Leak
   match-leak-kinds: reachable
   fun:_Znwm
   fun:_Z16make_pass_tracerPN3gcc7contextE
   fun:_ZN3gcc12pass_managerC1EPNS_7contextE
   fun:_ZN6toplev4mainEiPPc
   fun:main
}
{
   <insert_a_suppression_name_here>
   Memcheck:Leak
   match-leak-kinds: reachable
   fun:_Znwm
   fun:_Z16make_pass_strlenPN3gcc7contextE
   fun:_ZN3gcc12pass_managerC1EPNS_7contextE
   fun:_ZN6toplev4mainEiPPc
   fun:main
}
{
   <insert_a_suppression_name_here>
   Memcheck:Leak
   match-leak-kinds: reachable
   fun:_Znwm
   fun:_Z23make_pass_warn_restrictPN3gcc7contextE
   fun:_ZN3gcc12pass_managerC1EPNS_7contextE
   fun:_ZN6toplev4mainEiPPc
   fun:main
}
{
   <insert_a_suppression_name_here>
   Memcheck:Leak
   match-leak-kinds: reachable
   fun:_Znwm
   fun:_Z23make_pass_fold_builtinsPN3gcc7contextE
   fun:_ZN3gcc12pass_managerC1EPNS_7contextE
   fun:_ZN6toplev4mainEiPPc
   fun:main
}
{
   <insert_a_suppression_name_here>
   Memcheck:Leak
   match-leak-kinds: reachable
   fun:_Znwm
   fun:_Z31make_pass_optimize_widening_mulPN3gcc7contextE
   fun:_ZN3gcc12pass_managerC1EPNS_7contextE
   fun:_ZN6toplev4mainEiPPc
   fun:main
}
{
   <insert_a_suppression_name_here>
   Memcheck:Leak
   match-leak-kinds: reachable
   fun:_Znwm
   fun:_Z20make_pass_tail_callsPN3gcc7contextE
   fun:_ZN3gcc12pass_managerC1EPNS_7contextE
   fun:_ZN6toplev4mainEiPPc
   fun:main
}
{
   <insert_a_suppression_name_here>
   Memcheck:Leak
   match-leak-kinds: reachable
   fun:_Znwm
   fun:_Z26make_pass_split_crit_edgesPN3gcc7contextE
   fun:_ZN3gcc12pass_managerC1EPNS_7contextE
   fun:_ZN6toplev4mainEiPPc
   fun:main
}
{
   <insert_a_suppression_name_here>
   Memcheck:Leak
   match-leak-kinds: reachable
   fun:_Znwm
   fun:_Z33make_pass_late_warn_uninitializedPN3gcc7contextE
   fun:_ZN3gcc12pass_managerC1EPNS_7contextE
   fun:_ZN6toplev4mainEiPPc
   fun:main
}
{
   <insert_a_suppression_name_here>
   Memcheck:Leak
   match-leak-kinds: reachable
   fun:_Znwm
   fun:_Z17make_pass_uncpropPN3gcc7contextE
   fun:_ZN3gcc12pass_managerC1EPNS_7contextE
   fun:_ZN6toplev4mainEiPPc
   fun:main
}
{
   <insert_a_suppression_name_here>
   Memcheck:Leak
   match-leak-kinds: reachable
   fun:_Znwm
   fun:_Z17make_pass_tm_initPN3gcc7contextE
   fun:_ZN3gcc12pass_managerC1EPNS_7contextE
   fun:_ZN6toplev4mainEiPPc
   fun:main
}
{
   <insert_a_suppression_name_here>
   Memcheck:Leak
   match-leak-kinds: reachable
   fun:_Znwm
   fun:_Z17make_pass_tm_markPN3gcc7contextE
   fun:_ZN3gcc12pass_managerC1EPNS_7contextE
   fun:_ZN6toplev4mainEiPPc
   fun:main
}
{
   <insert_a_suppression_name_here>
   Memcheck:Leak
   match-leak-kinds: reachable
   fun:_Znwm
   fun:_Z19make_pass_tm_memoptPN3gcc7contextE
   fun:_ZN3gcc12pass_managerC1EPNS_7contextE
   fun:_ZN6toplev4mainEiPPc
   fun:main
}
{
   <insert_a_suppression_name_here>
   Memcheck:Leak
   match-leak-kinds: reachable
   fun:_Znwm
   fun:_Z18make_pass_tm_edgesPN3gcc7contextE
   fun:_ZN3gcc12pass_managerC1EPNS_7contextE
   fun:_ZN6toplev4mainEiPPc
   fun:main
}
{
   <insert_a_suppression_name_here>
   Memcheck:Leak
   match-leak-kinds: reachable
   fun:_Znwm
   fun:_Z23make_pass_vtable_verifyPN3gcc7contextE
   fun:_ZN3gcc12pass_managerC1EPNS_7contextE
   fun:_ZN6toplev4mainEiPPc
   fun:main
}
{
   <insert_a_suppression_name_here>
   Memcheck:Leak
   match-leak-kinds: reachable
   fun:_Znwm
   fun:_Z21make_pass_lower_vaargPN3gcc7contextE
   fun:_ZN3gcc12pass_managerC1EPNS_7contextE
   fun:_ZN6toplev4mainEiPPc
   fun:main
}
{
   <insert_a_suppression_name_here>
   Memcheck:Leak
   match-leak-kinds: reachable
   fun:_Znwm
   fun:_Z22make_pass_lower_vectorPN3gcc7contextE
   fun:_ZN3gcc12pass_managerC1EPNS_7contextE
   fun:_ZN6toplev4mainEiPPc
   fun:main
}
{
   <insert_a_suppression_name_here>
   Memcheck:Leak
   match-leak-kinds: reachable
   fun:_Znwm
   fun:_Z26make_pass_lower_complex_O0PN3gcc7contextE
   fun:_ZN3gcc12pass_managerC1EPNS_7contextE
   fun:_ZN6toplev4mainEiPPc
   fun:main
}
{
   <insert_a_suppression_name_here>
   Memcheck:Leak
   match-leak-kinds: reachable
   fun:_Znwm
   fun:_Z19make_pass_sancov_O0PN3gcc7contextE
   fun:_ZN3gcc12pass_managerC1EPNS_7contextE
   fun:_ZN6toplev4mainEiPPc
   fun:main
}
{
   <insert_a_suppression_name_here>
   Memcheck:Leak
   match-leak-kinds: reachable
   fun:_Znwm
   fun:_Z25make_pass_lower_switch_O0PN3gcc7contextE
   fun:_ZN3gcc12pass_managerC1EPNS_7contextE
   fun:_ZN6toplev4mainEiPPc
   fun:main
}
{
   <insert_a_suppression_name_here>
   Memcheck:Leak
   match-leak-kinds: reachable
   fun:_Znwm
   fun:_Z17make_pass_asan_O0PN3gcc7contextE
   fun:_ZN3gcc12pass_managerC1EPNS_7contextE
   fun:_ZN6toplev4mainEiPPc
   fun:main
}
{
   <insert_a_suppression_name_here>
   Memcheck:Leak
   match-leak-kinds: reachable
   fun:_Znwm
   fun:_Z17make_pass_tsan_O0PN3gcc7contextE
   fun:_ZN3gcc12pass_managerC1EPNS_7contextE
   fun:_ZN6toplev4mainEiPPc
   fun:main
}
{
   <insert_a_suppression_name_here>
   Memcheck:Leak
   match-leak-kinds: reachable
   fun:_Znwm
   fun:_Z16make_pass_sanoptPN3gcc7contextE
   fun:_ZN3gcc12pass_managerC1EPNS_7contextE
   fun:_ZN6toplev4mainEiPPc
   fun:main
}
{
   <insert_a_suppression_name_here>
   Memcheck:Leak
   match-leak-kinds: reachable
   fun:_Znwm
   fun:_Z20make_pass_lower_resxPN3gcc7contextE
   fun:_ZN3gcc12pass_managerC1EPNS_7contextE
   fun:_ZN6toplev4mainEiPPc
   fun:main
}
{
   <insert_a_suppression_name_here>
   Memcheck:Leak
   match-leak-kinds: reachable
   fun:_Znwm
   fun:_Z13make_pass_nrvPN3gcc7contextE
   fun:_ZN3gcc12pass_managerC1EPNS_7contextE
   fun:_ZN6toplev4mainEiPPc
   fun:main
}
{
   <insert_a_suppression_name_here>
   Memcheck:Leak
   match-leak-kinds: reachable
   fun:_Znwm
   fun:_Z21make_pass_gimple_iselPN3gcc7contextE
   fun:_ZN3gcc12pass_managerC1EPNS_7contextE
   fun:_ZN6toplev4mainEiPPc
   fun:main
}
{
   <insert_a_suppression_name_here>
   Memcheck:Leak
   match-leak-kinds: reachable
   fun:_Znwm
   fun:_Z37make_pass_cleanup_cfg_post_optimizingPN3gcc7contextE
   fun:_ZN3gcc12pass_managerC1EPNS_7contextE
   fun:_ZN6toplev4mainEiPPc
   fun:main
}
{
   <insert_a_suppression_name_here>
   Memcheck:Leak
   match-leak-kinds: reachable
   fun:_Znwm
   fun:_Z32make_pass_warn_function_noreturnPN3gcc7contextE
   fun:_ZN3gcc12pass_managerC1EPNS_7contextE
   fun:_ZN6toplev4mainEiPPc
   fun:main
}
{
   <insert_a_suppression_name_here>
   Memcheck:Leak
   match-leak-kinds: reachable
   fun:_Znwm
   fun:_Z16make_pass_expandPN3gcc7contextE
   fun:_ZN3gcc12pass_managerC1EPNS_7contextE
   fun:_ZN6toplev4mainEiPPc
   fun:main
}
{
   <insert_a_suppression_name_here>
   Memcheck:Leak
   match-leak-kinds: reachable
   fun:_Znwm
   fun:_Z34make_pass_instantiate_virtual_regsPN3gcc7contextE
   fun:_ZN3gcc12pass_managerC1EPNS_7contextE
   fun:_ZN6toplev4mainEiPPc
   fun:main
}
{
   <insert_a_suppression_name_here>
   Memcheck:Leak
   match-leak-kinds: reachable
   fun:_Znwm
   fun:_Z30make_pass_into_cfg_layout_modePN3gcc7contextE
   fun:_ZN3gcc12pass_managerC1EPNS_7contextE
   fun:_ZN6toplev4mainEiPPc
   fun:main
}
{
   <insert_a_suppression_name_here>
   Memcheck:Leak
   match-leak-kinds: reachable
   fun:_Znwm
   fun:_Z14make_pass_jumpPN3gcc7contextE
   fun:_ZN3gcc12pass_managerC1EPNS_7contextE
   fun:_ZN6toplev4mainEiPPc
   fun:main
}
{
   <insert_a_suppression_name_here>
   Memcheck:Leak
   match-leak-kinds: reachable
   fun:_Znwm
   fun:_Z22make_pass_lower_subregPN3gcc7contextE
   fun:_ZN3gcc12pass_managerC1EPNS_7contextE
   fun:_ZN6toplev4mainEiPPc
   fun:main
}
{
   <insert_a_suppression_name_here>
   Memcheck:Leak
   match-leak-kinds: reachable
   fun:_Znwm
   fun:_Z27make_pass_df_initialize_optPN3gcc7contextE
   fun:_ZN3gcc12pass_managerC1EPNS_7contextE
   fun:_ZN6toplev4mainEiPPc
   fun:main
}
{
   <insert_a_suppression_name_here>
   Memcheck:Leak
   match-leak-kinds: reachable
   fun:_Znwm
   fun:_Z13make_pass_csePN3gcc7contextE
   fun:_ZN3gcc12pass_managerC1EPNS_7contextE
   fun:_ZN6toplev4mainEiPPc
   fun:main
}
{
   <insert_a_suppression_name_here>
   Memcheck:Leak
   match-leak-kinds: reachable
   fun:_Znwm
   fun:_Z20make_pass_rtl_fwpropPN3gcc7contextE
   fun:_ZN3gcc12pass_managerC1EPNS_7contextE
   fun:_ZN6toplev4mainEiPPc
   fun:main
}
{
   <insert_a_suppression_name_here>
   Memcheck:Leak
   match-leak-kinds: reachable
   fun:_Znwm
   fun:_Z19make_pass_rtl_cpropPN3gcc7contextE
   fun:_ZN3gcc12pass_managerC1EPNS_7contextE
   fun:_ZN6toplev4mainEiPPc
   fun:main
}
{
   <insert_a_suppression_name_here>
   Memcheck:Leak
   match-leak-kinds: reachable
   fun:_Znwm
   fun:_Z17make_pass_rtl_prePN3gcc7contextE
   fun:_ZN3gcc12pass_managerC1EPNS_7contextE
   fun:_ZN6toplev4mainEiPPc
   fun:main
}
{
   <insert_a_suppression_name_here>
   Memcheck:Leak
   match-leak-kinds: reachable
   fun:_Znwm
   fun:_Z19make_pass_rtl_hoistPN3gcc7contextE
   fun:_ZN3gcc12pass_managerC1EPNS_7contextE
   fun:_ZN6toplev4mainEiPPc
   fun:main
}
{
   <insert_a_suppression_name_here>
   Memcheck:Leak
   match-leak-kinds: reachable
   fun:_Znwm
   fun:_Z26make_pass_rtl_store_motionPN3gcc7contextE
   fun:_ZN3gcc12pass_managerC1EPNS_7contextE
   fun:_ZN6toplev4mainEiPPc
   fun:main
}
{
   <insert_a_suppression_name_here>
   Memcheck:Leak
   match-leak-kinds: reachable
   fun:_Znwm
   fun:_Z31make_pass_cse_after_global_optsPN3gcc7contextE
   fun:_ZN3gcc12pass_managerC1EPNS_7contextE
   fun:_ZN6toplev4mainEiPPc
   fun:main
}
{
   <insert_a_suppression_name_here>
   Memcheck:Leak
   match-leak-kinds: reachable
   fun:_Znwm
   fun:_Z19make_pass_rtl_ifcvtPN3gcc7contextE
   fun:_ZN3gcc12pass_managerC1EPNS_7contextE
   fun:_ZN6toplev4mainEiPPc
   fun:main
}
{
   <insert_a_suppression_name_here>
   Memcheck:Leak
   match-leak-kinds: reachable
   fun:_Znwm
   fun:_Z22make_pass_reginfo_initPN3gcc7contextE
   fun:_ZN3gcc12pass_managerC1EPNS_7contextE
   fun:_ZN6toplev4mainEiPPc
   fun:main
}
{
   <insert_a_suppression_name_here>
   Memcheck:Leak
   match-leak-kinds: reachable
   fun:_Znwm
   fun:_Z15make_pass_loop2PN3gcc7contextE
   fun:_ZN3gcc12pass_managerC1EPNS_7contextE
   fun:_ZN6toplev4mainEiPPc
   fun:main
}
{
   <insert_a_suppression_name_here>
   Memcheck:Leak
   match-leak-kinds: reachable
   fun:_Znwm
   fun:_Z23make_pass_rtl_loop_initPN3gcc7contextE
   fun:_ZN3gcc12pass_managerC1EPNS_7contextE
   fun:_ZN6toplev4mainEiPPc
   fun:main
}
{
   <insert_a_suppression_name_here>
   Memcheck:Leak
   match-leak-kinds: reachable
   fun:_Znwm
   fun:_Z34make_pass_rtl_move_loop_invariantsPN3gcc7contextE
   fun:_ZN3gcc12pass_managerC1EPNS_7contextE
   fun:_ZN6toplev4mainEiPPc
   fun:main
}
{
   <insert_a_suppression_name_here>
   Memcheck:Leak
   match-leak-kinds: reachable
   fun:_Znwm
   fun:_Z26make_pass_rtl_unroll_loopsPN3gcc7contextE
   fun:_ZN3gcc12pass_managerC1EPNS_7contextE
   fun:_ZN6toplev4mainEiPPc
   fun:main
}
{
   <insert_a_suppression_name_here>
   Memcheck:Leak
   match-leak-kinds: reachable
   fun:_Znwm
   fun:_Z20make_pass_rtl_doloopPN3gcc7contextE
   fun:_ZN3gcc12pass_managerC1EPNS_7contextE
   fun:_ZN6toplev4mainEiPPc
   fun:main
}
{
   <insert_a_suppression_name_here>
   Memcheck:Leak
   match-leak-kinds: reachable
   fun:_Znwm
   fun:_Z23make_pass_rtl_loop_donePN3gcc7contextE
   fun:_ZN3gcc12pass_managerC1EPNS_7contextE
   fun:_ZN6toplev4mainEiPPc
   fun:main
}
{
   <insert_a_suppression_name_here>
   Memcheck:Leak
   match-leak-kinds: reachable
   fun:_Znwm
   fun:_Z23make_pass_lower_subreg2PN3gcc7contextE
   fun:_ZN3gcc12pass_managerC1EPNS_7contextE
   fun:_ZN6toplev4mainEiPPc
   fun:main
}
{
   <insert_a_suppression_name_here>
   Memcheck:Leak
   match-leak-kinds: reachable
   fun:_Znwm
   fun:_Z13make_pass_webPN3gcc7contextE
   fun:_ZN3gcc12pass_managerC1EPNS_7contextE
   fun:_ZN6toplev4mainEiPPc
   fun:main
}
{
   <insert_a_suppression_name_here>
   Memcheck:Leak
   match-leak-kinds: reachable
   fun:_Znwm
   fun:_Z14make_pass_cse2PN3gcc7contextE
   fun:_ZN3gcc12pass_managerC1EPNS_7contextE
   fun:_ZN6toplev4mainEiPPc
   fun:main
}
{
   <insert_a_suppression_name_here>
   Memcheck:Leak
   match-leak-kinds: reachable
   fun:_Znwm
   fun:_Z18make_pass_rtl_dse1PN3gcc7contextE
   fun:_ZN3gcc12pass_managerC1EPNS_7contextE
   fun:_ZN6toplev4mainEiPPc
   fun:main
}
{
   <insert_a_suppression_name_here>
   Memcheck:Leak
   match-leak-kinds: reachable
   fun:_Znwm
   fun:_Z25make_pass_rtl_fwprop_addrPN3gcc7contextE
   fun:_ZN3gcc12pass_managerC1EPNS_7contextE
   fun:_ZN6toplev4mainEiPPc
   fun:main
}
{
   <insert_a_suppression_name_here>
   Memcheck:Leak
   match-leak-kinds: reachable
   fun:_Znwm
   fun:_Z17make_pass_inc_decPN3gcc7contextE
   fun:_ZN3gcc12pass_managerC1EPNS_7contextE
   fun:_ZN6toplev4mainEiPPc
   fun:main
}
{
   <insert_a_suppression_name_here>
   Memcheck:Leak
   match-leak-kinds: reachable
   fun:_Znwm
   fun:_Z25make_pass_initialize_regsPN3gcc7contextE
   fun:_ZN3gcc12pass_managerC1EPNS_7contextE
   fun:_ZN6toplev4mainEiPPc
   fun:main
}
{
   <insert_a_suppression_name_here>
   Memcheck:Leak
   match-leak-kinds: reachable
   fun:_Znwm
   fun:_Z20make_pass_ud_rtl_dcePN3gcc7contextE
   fun:_ZN3gcc12pass_managerC1EPNS_7contextE
   fun:_ZN6toplev4mainEiPPc
   fun:main
}
{
   <insert_a_suppression_name_here>
   Memcheck:Leak
   match-leak-kinds: reachable
   fun:_Znwm
   fun:_Z17make_pass_combinePN3gcc7contextE
   fun:_ZN3gcc12pass_managerC1EPNS_7contextE
   fun:_ZN6toplev4mainEiPPc
   fun:main
}
{
   <insert_a_suppression_name_here>
   Memcheck:Leak
   match-leak-kinds: reachable
   fun:_Znwm
   fun:_Z33make_pass_constant_pool_broadcastPN3gcc7contextE
   fun:_ZN3gcc12pass_managerC1EPNS_7contextE
   fun:_ZN6toplev4mainEiPPc
   fun:main
}
{
   <insert_a_suppression_name_here>
   Memcheck:Leak
   match-leak-kinds: reachable
   fun:_Znwm
   fun:_Z39make_pass_remove_partial_avx_dependencyPN3gcc7contextE
   fun:_ZN3gcc12pass_managerC1EPNS_7contextE
   fun:_ZN6toplev4mainEiPPc
   fun:main
}
{
   <insert_a_suppression_name_here>
   Memcheck:Leak
   match-leak-kinds: reachable
   fun:_Znwm
   fun:_Z26make_pass_if_after_combinePN3gcc7contextE
   fun:_ZN3gcc12pass_managerC1EPNS_7contextE
   fun:_ZN6toplev4mainEiPPc
   fun:main
}
{
   <insert_a_suppression_name_here>
   Memcheck:Leak
   match-leak-kinds: reachable
   fun:_Znwm
   fun:_Z28make_pass_jump_after_combinePN3gcc7contextE
   fun:_ZN3gcc12pass_managerC1EPNS_7contextE
   fun:_ZN6toplev4mainEiPPc
   fun:main
}
{
   <insert_a_suppression_name_here>
   Memcheck:Leak
   match-leak-kinds: reachable
   fun:_Znwm
   fun:_Z26make_pass_partition_blocksPN3gcc7contextE
   fun:_ZN3gcc12pass_managerC1EPNS_7contextE
   fun:_ZN6toplev4mainEiPPc
   fun:main
}
{
   <insert_a_suppression_name_here>
   Memcheck:Leak
   match-leak-kinds: reachable
   fun:_Znwm
   fun:_Z31make_pass_outof_cfg_layout_modePN3gcc7contextE
   fun:_ZN3gcc12pass_managerC1EPNS_7contextE
   fun:_ZN6toplev4mainEiPPc
   fun:main
}
{
   <insert_a_suppression_name_here>
   Memcheck:Leak
   match-leak-kinds: reachable
   fun:_Znwm
   fun:_Z25make_pass_split_all_insnsPN3gcc7contextE
   fun:_ZN3gcc12pass_managerC1EPNS_7contextE
   fun:_ZN6toplev4mainEiPPc
   fun:main
}
{
   <insert_a_suppression_name_here>
   Memcheck:Leak
   match-leak-kinds: reachable
   fun:_Znwm
   fun:_Z23make_pass_lower_subreg3PN3gcc7contextE
   fun:_ZN3gcc12pass_managerC1EPNS_7contextE
   fun:_ZN6toplev4mainEiPPc
   fun:main
}
{
   <insert_a_suppression_name_here>
   Memcheck:Leak
   match-leak-kinds: reachable
   fun:_Znwm
   fun:_Z30make_pass_df_initialize_no_optPN3gcc7contextE
   fun:_ZN3gcc12pass_managerC1EPNS_7contextE
   fun:_ZN6toplev4mainEiPPc
   fun:main
}
{
   <insert_a_suppression_name_here>
   Memcheck:Leak
   match-leak-kinds: reachable
   fun:_Znwm
   fun:_Z23make_pass_stack_ptr_modPN3gcc7contextE
   fun:_ZN3gcc12pass_managerC1EPNS_7contextE
   fun:_ZN6toplev4mainEiPPc
   fun:main
}
{
   <insert_a_suppression_name_here>
   Memcheck:Leak
   match-leak-kinds: reachable
   fun:_Znwm
   fun:_Z24make_pass_mode_switchingPN3gcc7contextE
   fun:_ZN3gcc12pass_managerC1EPNS_7contextE
   fun:_ZN6toplev4mainEiPPc
   fun:main
}
{
   <insert_a_suppression_name_here>
   Memcheck:Leak
   match-leak-kinds: reachable
   fun:_Znwm
   fun:_Z31make_pass_match_asm_constraintsPN3gcc7contextE
   fun:_ZN3gcc12pass_managerC1EPNS_7contextE
   fun:_ZN6toplev4mainEiPPc
   fun:main
}
{
   <insert_a_suppression_name_here>
   Memcheck:Leak
   match-leak-kinds: reachable
   fun:_Znwm
   fun:_Z13make_pass_smsPN3gcc7contextE
   fun:_ZN3gcc12pass_managerC1EPNS_7contextE
   fun:_ZN6toplev4mainEiPPc
   fun:main
}
{
   <insert_a_suppression_name_here>
   Memcheck:Leak
   match-leak-kinds: reachable
   fun:_Znwm
   fun:_Z30make_pass_live_range_shrinkagePN3gcc7contextE
   fun:_ZN3gcc12pass_managerC1EPNS_7contextE
   fun:_ZN6toplev4mainEiPPc
   fun:main
}
{
   <insert_a_suppression_name_here>
   Memcheck:Leak
   match-leak-kinds: reachable
   fun:_Znwm
   fun:_Z15make_pass_schedPN3gcc7contextE
   fun:_ZN3gcc12pass_managerC1EPNS_7contextE
   fun:_ZN6toplev4mainEiPPc
   fun:main
}
{
   <insert_a_suppression_name_here>
   Memcheck:Leak
   match-leak-kinds: reachable
   fun:_Znwm
   fun:_Z21make_pass_early_rematPN3gcc7contextE
   fun:_ZN3gcc12pass_managerC1EPNS_7contextE
   fun:_ZN6toplev4mainEiPPc
   fun:main
}
{
   <insert_a_suppression_name_here>
   Memcheck:Leak
   match-leak-kinds: reachable
   fun:_Znwm
   fun:_Z13make_pass_iraPN3gcc7contextE
   fun:_ZN3gcc12pass_managerC1EPNS_7contextE
   fun:_ZN6toplev4mainEiPPc
   fun:main
}
{
   <insert_a_suppression_name_here>
   Memcheck:Leak
   match-leak-kinds: reachable
   fun:_Znwm
   fun:_Z16make_pass_reloadPN3gcc7contextE
   fun:_ZN3gcc12pass_managerC1EPNS_7contextE
   fun:_ZN6toplev4mainEiPPc
   fun:main
}
{
   <insert_a_suppression_name_here>
   Memcheck:Leak
   match-leak-kinds: reachable
   fun:_Znwm
   fun:_Z27make_pass_insert_vzeroupperPN3gcc7contextE
   fun:_ZN3gcc12pass_managerC1EPNS_7contextE
   fun:_ZN6toplev4mainEiPPc
   fun:main
}
{
   <insert_a_suppression_name_here>
   Memcheck:Leak
   match-leak-kinds: reachable
   fun:_Znwm
   fun:_Z24make_pass_postreload_csePN3gcc7contextE
   fun:_ZN3gcc12pass_managerC1EPNS_7contextE
   fun:_ZN6toplev4mainEiPPc
   fun:main
}
{
   <insert_a_suppression_name_here>
   Memcheck:Leak
   match-leak-kinds: reachable
   fun:_Znwm
   fun:_Z15make_pass_gcse2PN3gcc7contextE
   fun:_ZN3gcc12pass_managerC1EPNS_7contextE
   fun:_ZN6toplev4mainEiPPc
   fun:main
}
{
   <insert_a_suppression_name_here>
   Memcheck:Leak
   match-leak-kinds: reachable
   fun:_Znwm
   fun:_Z28make_pass_split_after_reloadPN3gcc7contextE
   fun:_ZN3gcc12pass_managerC1EPNS_7contextE
   fun:_ZN6toplev4mainEiPPc
   fun:main
}
{
   <insert_a_suppression_name_here>
   Memcheck:Leak
   match-leak-kinds: reachable
   fun:_Znwm
   fun:_Z13make_pass_reePN3gcc7contextE
   fun:_ZN3gcc12pass_managerC1EPNS_7contextE
   fun:_ZN6toplev4mainEiPPc
   fun:main
}
{
   <insert_a_suppression_name_here>
   Memcheck:Leak
   match-leak-kinds: reachable
   fun:_Znwm
   fun:_Z35make_pass_compare_elim_after_reloadPN3gcc7contextE
   fun:_ZN3gcc12pass_managerC1EPNS_7contextE
   fun:_ZN6toplev4mainEiPPc
   fun:main
}
{
   <insert_a_suppression_name_here>
   Memcheck:Leak
   match-leak-kinds: reachable
   fun:_Znwm
   fun:_Z38make_pass_thread_prologue_and_epiloguePN3gcc7contextE
   fun:_ZN3gcc12pass_managerC1EPNS_7contextE
   fun:_ZN6toplev4mainEiPPc
   fun:main
}
{
   <insert_a_suppression_name_here>
   Memcheck:Leak
   match-leak-kinds: reachable
   fun:_Znwm
   fun:_Z18make_pass_rtl_dse2PN3gcc7contextE
   fun:_ZN3gcc12pass_managerC1EPNS_7contextE
   fun:_ZN6toplev4mainEiPPc
   fun:main
}
{
   <insert_a_suppression_name_here>
   Memcheck:Leak
   match-leak-kinds: reachable
   fun:_Znwm
   fun:_Z27make_pass_stack_adjustmentsPN3gcc7contextE
   fun:_ZN3gcc12pass_managerC1EPNS_7contextE
   fun:_ZN6toplev4mainEiPPc
   fun:main
}
{
   <insert_a_suppression_name_here>
   Memcheck:Leak
   match-leak-kinds: reachable
   fun:_Znwm
   fun:_Z15make_pass_jump2PN3gcc7contextE
   fun:_ZN3gcc12pass_managerC1EPNS_7contextE
   fun:_ZN6toplev4mainEiPPc
   fun:main
}
{
   <insert_a_suppression_name_here>
   Memcheck:Leak
   match-leak-kinds: reachable
   fun:_Znwm
   fun:_Z34make_pass_duplicate_computed_gotosPN3gcc7contextE
   fun:_ZN3gcc12pass_managerC1EPNS_7contextE
   fun:_ZN6toplev4mainEiPPc
   fun:main
}
{
   <insert_a_suppression_name_here>
   Memcheck:Leak
   match-leak-kinds: reachable
   fun:_Znwm
   fun:_Z22make_pass_sched_fusionPN3gcc7contextE
   fun:_ZN3gcc12pass_managerC1EPNS_7contextE
   fun:_ZN6toplev4mainEiPPc
   fun:main
}
{
   <insert_a_suppression_name_here>
   Memcheck:Leak
   match-leak-kinds: reachable
   fun:_Znwm
   fun:_Z19make_pass_peephole2PN3gcc7contextE
   fun:_ZN3gcc12pass_managerC1EPNS_7contextE
   fun:_ZN6toplev4mainEiPPc
   fun:main
}
{
   <insert_a_suppression_name_here>
   Memcheck:Leak
   match-leak-kinds: reachable
   fun:_Znwm
   fun:_Z25make_pass_if_after_reloadPN3gcc7contextE
   fun:_ZN3gcc12pass_managerC1EPNS_7contextE
   fun:_ZN6toplev4mainEiPPc
   fun:main
}
{
   <insert_a_suppression_name_here>
   Memcheck:Leak
   match-leak-kinds: reachable
   fun:_Znwm
   fun:_Z19make_pass_regrenamePN3gcc7contextE
   fun:_ZN3gcc12pass_managerC1EPNS_7contextE
   fun:_ZN6toplev4mainEiPPc
   fun:main
}
{
   <insert_a_suppression_name_here>
   Memcheck:Leak
   match-leak-kinds: reachable
   fun:_Znwm
   fun:_Z23make_pass_cprop_hardregPN3gcc7contextE
   fun:_ZN3gcc12pass_managerC1EPNS_7contextE
   fun:_ZN6toplev4mainEiPPc
   fun:main
}
{
   <insert_a_suppression_name_here>
   Memcheck:Leak
   match-leak-kinds: reachable
   fun:_Znwm
   fun:_Z22make_pass_fast_rtl_dcePN3gcc7contextE
   fun:_ZN3gcc12pass_managerC1EPNS_7contextE
   fun:_ZN6toplev4mainEiPPc
   fun:main
}
{
   <insert_a_suppression_name_here>
   Memcheck:Leak
   match-leak-kinds: reachable
   fun:_Znwm
   fun:_Z24make_pass_reorder_blocksPN3gcc7contextE
   fun:_ZN3gcc12pass_managerC1EPNS_7contextE
   fun:_ZN6toplev4mainEiPPc
   fun:main
}
{
   <insert_a_suppression_name_here>
   Memcheck:Leak
   match-leak-kinds: reachable
   fun:_Znwm
   fun:_Z19make_pass_leaf_regsPN3gcc7contextE
   fun:_ZN3gcc12pass_managerC1EPNS_7contextE
   fun:_ZN6toplev4mainEiPPc
   fun:main
}
{
   <insert_a_suppression_name_here>
   Memcheck:Leak
   match-leak-kinds: reachable
   fun:_Znwm
   fun:_Z29make_pass_split_before_sched2PN3gcc7contextE
   fun:_ZN3gcc12pass_managerC1EPNS_7contextE
   fun:_ZN6toplev4mainEiPPc
   fun:main
}
{
   <insert_a_suppression_name_here>
   Memcheck:Leak
   match-leak-kinds: reachable
   fun:_Znwm
   fun:_Z16make_pass_sched2PN3gcc7contextE
   fun:_ZN3gcc12pass_managerC1EPNS_7contextE
   fun:_ZN6toplev4mainEiPPc
   fun:main
}
{
   <insert_a_suppression_name_here>
   Memcheck:Leak
   match-leak-kinds: reachable
   fun:_Znwm
   fun:_Z20make_pass_stack_regsPN3gcc7contextE
   fun:_ZN3gcc12pass_managerC1EPNS_7contextE
   fun:_ZN6toplev4mainEiPPc
   fun:main
}
{
   <insert_a_suppression_name_here>
   Memcheck:Leak
   match-leak-kinds: reachable
   fun:_Znwm
   fun:_Z31make_pass_split_before_regstackPN3gcc7contextE
   fun:_ZN3gcc12pass_managerC1EPNS_7contextE
   fun:_ZN6toplev4mainEiPPc
   fun:main
}
{
   <insert_a_suppression_name_here>
   Memcheck:Leak
   match-leak-kinds: reachable
   fun:_Znwm
   fun:_Z24make_pass_stack_regs_runPN3gcc7contextE
   fun:_ZN3gcc12pass_managerC1EPNS_7contextE
   fun:_ZN6toplev4mainEiPPc
   fun:main
}
{
   <insert_a_suppression_name_here>
   Memcheck:Leak
   match-leak-kinds: reachable
   fun:_Znwm
   fun:_Z29make_pass_zero_call_used_regsPN3gcc7contextE
   fun:_ZN3gcc12pass_managerC1EPNS_7contextE
   fun:_ZN6toplev4mainEiPPc
   fun:main
}
{
   <insert_a_suppression_name_here>
   Memcheck:Leak
   match-leak-kinds: reachable
   fun:_Znwm
   fun:_Z28make_pass_compute_alignmentsPN3gcc7contextE
   fun:_ZN3gcc12pass_managerC1EPNS_7contextE
   fun:_ZN6toplev4mainEiPPc
   fun:main
}
{
   <insert_a_suppression_name_here>
   Memcheck:Leak
   match-leak-kinds: reachable
   fun:_Znwm
   fun:_Z27make_pass_variable_trackingPN3gcc7contextE
   fun:_ZN3gcc12pass_managerC1EPNS_7contextE
   fun:_ZN6toplev4mainEiPPc
   fun:main
}
{
   <insert_a_suppression_name_here>
   Memcheck:Leak
   match-leak-kinds: reachable
   fun:_Znwm
   fun:_Z18make_pass_free_cfgPN3gcc7contextE
   fun:_ZN3gcc12pass_managerC1EPNS_7contextE
   fun:_ZN6toplev4mainEiPPc
   fun:main
}
{
   <insert_a_suppression_name_here>
   Memcheck:Leak
   match-leak-kinds: reachable
   fun:_Znwm
   fun:_Z23make_pass_machine_reorgPN3gcc7contextE
   fun:_ZN3gcc12pass_managerC1EPNS_7contextE
   fun:_ZN6toplev4mainEiPPc
   fun:main
}
{
   <insert_a_suppression_name_here>
   Memcheck:Leak
   match-leak-kinds: reachable
   fun:_Znwm
   fun:_Z26make_pass_cleanup_barriersPN3gcc7contextE
   fun:_ZN3gcc12pass_managerC1EPNS_7contextE
   fun:_ZN6toplev4mainEiPPc
   fun:main
}
{
   <insert_a_suppression_name_here>
   Memcheck:Leak
   match-leak-kinds: reachable
   fun:_Znwm
   fun:_Z21make_pass_delay_slotsPN3gcc7contextE
   fun:_ZN3gcc12pass_managerC1EPNS_7contextE
   fun:_ZN6toplev4mainEiPPc
   fun:main
}
{
   <insert_a_suppression_name_here>
   Memcheck:Leak
   match-leak-kinds: reachable
   fun:_Znwm
   fun:_Z36make_pass_split_for_shorten_branchesPN3gcc7contextE
   fun:_ZN3gcc12pass_managerC1EPNS_7contextE
   fun:_ZN6toplev4mainEiPPc
   fun:main
}
{
   <insert_a_suppression_name_here>
   Memcheck:Leak
   match-leak-kinds: reachable
   fun:_Znwm
   fun:_Z37make_pass_convert_to_eh_region_rangesPN3gcc7contextE
   fun:_ZN3gcc12pass_managerC1EPNS_7contextE
   fun:_ZN6toplev4mainEiPPc
   fun:main
}
{
   <insert_a_suppression_name_here>
   Memcheck:Leak
   match-leak-kinds: reachable
   fun:_Znwm
   fun:_Z26make_pass_shorten_branchesPN3gcc7contextE
   fun:_ZN3gcc12pass_managerC1EPNS_7contextE
   fun:_ZN6toplev4mainEiPPc
   fun:main
}
{
   <insert_a_suppression_name_here>
   Memcheck:Leak
   match-leak-kinds: reachable
   fun:_Znwm
   fun:_Z36make_pass_set_nothrow_function_flagsPN3gcc7contextE
   fun:_ZN3gcc12pass_managerC1EPNS_7contextE
   fun:_ZN6toplev4mainEiPPc
   fun:main
}
{
   <insert_a_suppression_name_here>
   Memcheck:Leak
   match-leak-kinds: reachable
   fun:_Znwm
   fun:_Z22make_pass_dwarf2_framePN3gcc7contextE
   fun:_ZN3gcc12pass_managerC1EPNS_7contextE
   fun:_ZN6toplev4mainEiPPc
   fun:main
}
{
   <insert_a_suppression_name_here>
   Memcheck:Leak
   match-leak-kinds: reachable
   fun:_Znwm
   fun:_Z15make_pass_finalPN3gcc7contextE
   fun:_ZN3gcc12pass_managerC1EPNS_7contextE
   fun:_ZN6toplev4mainEiPPc
   fun:main
}
{
   <insert_a_suppression_name_here>
   Memcheck:Leak
   match-leak-kinds: reachable
   fun:_Znwm
   fun:_Z19make_pass_df_finishPN3gcc7contextE
   fun:_ZN3gcc12pass_managerC1EPNS_7contextE
   fun:_ZN6toplev4mainEiPPc
   fun:main
}
{
   <insert_a_suppression_name_here>
   Memcheck:Leak
   match-leak-kinds: reachable
   fun:_Znwm
   fun:_Z21make_pass_clean_statePN3gcc7contextE
   fun:_ZN3gcc12pass_managerC1EPNS_7contextE
   fun:_ZN6toplev4mainEiPPc
   fun:main
}
{
   <insert_a_suppression_name_here>
   Memcheck:Leak
   match-leak-kinds: reachable
   fun:calloc
   fun:_Z18ggc_internal_allocmPFvPvEmm
   fun:_Z19ht_lookup_with_hashP2htPKhmj16ht_lookup_option
   fun:_cpp_init_directives
   fun:_cpp_init_hashtable
   fun:_Z17cpp_create_reader6c_langP2htP9line_maps
   fun:_Z21c_common_init_optionsjP17cl_decoded_option
   fun:_ZN6toplev4mainEiPPc
   fun:main
}
{
   <insert_a_suppression_name_here>
   Memcheck:Leak
   match-leak-kinds: reachable
   fun:calloc
   fun:_Z18ggc_internal_allocmPFvPvEmm
   fun:_Z15type_hash_canonjP9tree_node
   fun:_Z19build_function_typeP9tree_nodeS0_
   obj:/usr/lib/gcc/x86_64-linux-gnu/11/cc1
   fun:_Z27c_common_nodes_and_builtinsv
   fun:_Z22c_init_decl_processingv
   fun:_Z18c_objc_common_initv
   fun:_ZN6toplev4mainEiPPc
   fun:main
}
{
   <insert_a_suppression_name_here>
   Memcheck:Leak
   match-leak-kinds: reachable
   fun:calloc
   fun:_Z18ggc_internal_allocmPFvPvEmm
   fun:_Z15type_hash_canonjP9tree_node
   fun:_Z33build_type_attribute_qual_variantP9tree_nodeS0_i
   fun:_Z15decl_attributesPP9tree_nodeS0_iS0_
   obj:/usr/lib/gcc/x86_64-linux-gnu/11/cc1
   obj:/usr/lib/gcc/x86_64-linux-gnu/11/cc1
   fun:_Z27c_common_nodes_and_builtinsv
   fun:_Z22c_init_decl_processingv
   fun:_Z18c_objc_common_initv
   fun:_ZN6toplev4mainEiPPc
   fun:main
}
{
   <insert_a_suppression_name_here>
   Memcheck:Leak
   match-leak-kinds: reachable
   fun:calloc
   fun:_Z18ggc_internal_allocmPFvPvEmm
   fun:_Z19ht_lookup_with_hashP2htPKhmj16ht_lookup_option
   fun:_Z14get_identifierPKc
   obj:/usr/lib/gcc/x86_64-linux-gnu/11/cc1
   obj:/usr/lib/gcc/x86_64-linux-gnu/11/cc1
   fun:_Z27c_common_nodes_and_builtinsv
   fun:_Z22c_init_decl_processingv
   fun:_Z18c_objc_common_initv
   fun:_ZN6toplev4mainEiPPc
   fun:main
}
{
   <insert_a_suppression_name_here>
   Memcheck:Leak
   match-leak-kinds: reachable
   fun:calloc
   fun:_Z18ggc_internal_allocmPFvPvEmm
   fun:_Z19ht_lookup_with_hashP2htPKhmj16ht_lookup_option
   obj:/usr/lib/gcc/x86_64-linux-gnu/11/cc1
   fun:_cpp_lex_direct
   fun:_cpp_lex_token
   obj:/usr/lib/gcc/x86_64-linux-gnu/11/cc1
   obj:/usr/lib/gcc/x86_64-linux-gnu/11/cc1
   fun:_Z10cpp_defineP10cpp_readerPKc
   obj:/usr/lib/gcc/x86_64-linux-gnu/11/cc1
   fun:_Z14c_cpp_builtinsP10cpp_reader
   obj:/usr/lib/gcc/x86_64-linux-gnu/11/cc1
}
{
   <insert_a_suppression_name_here>
   Memcheck:Leak
   match-leak-kinds: reachable
   fun:calloc
   fun:_Z18ggc_internal_allocmPFvPvEmm
   fun:_Z19ht_lookup_with_hashP2htPKhmj16ht_lookup_option
   obj:/usr/lib/gcc/x86_64-linux-gnu/11/cc1
   fun:_cpp_lex_direct
   fun:_cpp_lex_token
   obj:/usr/lib/gcc/x86_64-linux-gnu/11/cc1
   fun:_Z16c_lex_with_flagsPP9tree_nodePjPhi
   obj:/usr/lib/gcc/x86_64-linux-gnu/11/cc1
   fun:_Z18c_parser_declspecsP8c_parserP11c_declspecsbbbbbbb16c_lookahead_kind
   obj:/usr/lib/gcc/x86_64-linux-gnu/11/cc1
   obj:/usr/lib/gcc/x86_64-linux-gnu/11/cc1
}
{
   <insert_a_suppression_name_here>
   Memcheck:Leak
   match-leak-kinds: reachable
   fun:_Znwm
   fun:_Z17make_pass_wallocaPN3gcc7contextE
   fun:_ZN3gcc12pass_managerC1EPNS_7contextE
   fun:_ZN6toplev4mainEiPPc
   fun:main
}
{
   <insert_a_suppression_name_here>
   Memcheck:Leak
   match-leak-kinds: reachable
   fun:_Znwm
   fun:_Z22make_pass_object_sizesPN3gcc7contextE
   fun:_ZN3gcc12pass_managerC1EPNS_7contextE
   fun:_ZN6toplev4mainEiPPc
   fun:main
}
{
   <insert_a_suppression_name_here>
   Memcheck:Leak
   match-leak-kinds: reachable
   fun:_Znwm
   fun:_Z13make_pass_ccpPN3gcc7contextE
   fun:_ZN3gcc12pass_managerC1EPNS_7contextE
   fun:_ZN6toplev4mainEiPPc
   fun:main
}
{
   <insert_a_suppression_name_here>
   Memcheck:Leak
   match-leak-kinds: reachable
   fun:_Znwm
   fun:_Z13make_pass_frePN3gcc7contextE
   fun:_ZN3gcc12pass_managerC1EPNS_7contextE
   fun:_ZN6toplev4mainEiPPc
   fun:main
}
{
   <insert_a_suppression_name_here>
   Memcheck:Leak
   match-leak-kinds: reachable
   fun:_Znwm
   fun:_Z16make_pass_cd_dcePN3gcc7contextE
   fun:_ZN3gcc12pass_managerC1EPNS_7contextE
   fun:_ZN6toplev4mainEiPPc
   fun:main
}
{
   <insert_a_suppression_name_here>
   Memcheck:Leak
   match-leak-kinds: reachable
   fun:_Znwm
   fun:_Z16make_pass_phioptPN3gcc7contextE
   fun:_ZN3gcc12pass_managerC1EPNS_7contextE
   fun:_ZN6toplev4mainEiPPc
   fun:main
}
{
   <insert_a_suppression_name_here>
   Memcheck:Leak
   match-leak-kinds: reachable
   fun:_Znwm
   fun:_Z29make_pass_strip_predict_hintsPN3gcc7contextE
   fun:_ZN3gcc12pass_managerC1EPNS_7contextE
   fun:_ZN6toplev4mainEiPPc
   fun:main
}
{
   <insert_a_suppression_name_here>
   Memcheck:Leak
   match-leak-kinds: reachable
   fun:_Znwm
   fun:_Z19make_pass_dominatorPN3gcc7contextE
   fun:_ZN3gcc12pass_managerC1EPNS_7contextE
   fun:_ZN6toplev4mainEiPPc
   fun:main
}
{
   <insert_a_suppression_name_here>
   Memcheck:Leak
   match-leak-kinds: reachable
   fun:_Znwm
   fun:_Z27make_pass_parallelize_loopsPN3gcc7contextE
   fun:_ZN3gcc12pass_managerC1EPNS_7contextE
   fun:_ZN6toplev4mainEiPPc
   fun:main
}
{
   <insert_a_suppression_name_here>
   Memcheck:Leak
   match-leak-kinds: reachable
   fun:_Znwm
   fun:_Z29make_pass_ipa_free_fn_summaryPN3gcc7contextE
   fun:_ZN3gcc12pass_managerC1EPNS_7contextE
   fun:_ZN6toplev4mainEiPPc
   fun:main
}
{
   <insert_a_suppression_name_here>
   Memcheck:Leak
   match-leak-kinds: reachable
   fun:_Znwm
   fun:_Z13make_pass_vrpPN3gcc7contextE
   fun:_ZN3gcc12pass_managerC1EPNS_7contextE
   fun:_ZN6toplev4mainEiPPc
   fun:main
}
{
   <insert_a_suppression_name_here>
   Memcheck:Leak
   match-leak-kinds: reachable
   fun:_Znwm
   fun:_Z17make_pass_reassocPN3gcc7contextE
   fun:_ZN3gcc12pass_managerC1EPNS_7contextE
   fun:_ZN6toplev4mainEiPPc
   fun:main
}
{
   <insert_a_suppression_name_here>
   Memcheck:Leak
   match-leak-kinds: reachable
   fun:_Znwm
   fun:_Z13make_pass_stvPN3gcc7contextE
   fun:_ZN3gcc12pass_managerC1EPNS_7contextE
   fun:_ZN6toplev4mainEiPPc
   fun:main
}
{
   <insert_a_suppression_name_here>
   Memcheck:Leak
   match-leak-kinds: reachable
   fun:_Znwm
   fun:_Z41make_pass_insert_endbr_and_patchable_areaPN3gcc7contextE
   fun:_ZN3gcc12pass_managerC1EPNS_7contextE
   fun:_ZN6toplev4mainEiPPc
   fun:main
}
{
   <insert_a_suppression_name_here>
   Memcheck:Leak
   match-leak-kinds: reachable
   fun:_Znwm
   obj:/usr/lib/gcc/x86_64-linux-gnu/11/cc1
   fun:_Z20statistics_fini_passv
   obj:/usr/lib/gcc/x86_64-linux-gnu/11/cc1
   fun:_Z16execute_one_passP8opt_pass
   obj:/usr/lib/gcc/x86_64-linux-gnu/11/cc1
   obj:/usr/lib/gcc/x86_64-linux-gnu/11/cc1
   fun:_Z17execute_pass_listP8functionP8opt_pass
   fun:_ZN11cgraph_node6expandEv
   fun:_ZN12symbol_table7compileEv
   fun:_ZN12symbol_table25finalize_compilation_unitEv
   obj:/usr/lib/gcc/x86_64-linux-gnu/11/cc1
}
{
   <insert_a_suppression_name_here>
   Memcheck:Leak
   match-leak-kinds: reachable
   fun:malloc
   fun:_ZN3gcc12pass_manager18register_pass_nameEP8opt_passPKc
   fun:_ZN3gcc12pass_manager22register_one_dump_fileEP8opt_pass
   fun:_ZN3gcc12pass_manager19register_dump_filesEP8opt_pass
   fun:_ZN3gcc12pass_manager19register_dump_filesEP8opt_pass
   fun:_ZN3gcc12pass_manager19register_dump_filesEP8opt_pass
   fun:_ZN3gcc12pass_manager19register_dump_filesEP8opt_pass
   fun:_ZN6toplev4mainEiPPc
   fun:main
}
{
   <insert_a_suppression_name_here>
   Memcheck:Leak
   match-leak-kinds: reachable
   fun:malloc
   fun:strdup
   fun:lrealpath
   fun:_Z23register_include_chainsP10cpp_readerPKcS2_S2_iii
   fun:_Z21c_common_post_optionsPPKc
   fun:_ZN6toplev4mainEiPPc
   fun:main
}
{
   <insert_a_suppression_name_here>
   Memcheck:Leak
   match-leak-kinds: reachable
   fun:calloc
   fun:xcalloc
   fun:_ZN6toplev4mainEiPPc
   fun:main
}
{
   <insert_a_suppression_name_here>
   Memcheck:Leak
   match-leak-kinds: reachable
   fun:calloc
   fun:htab_create_typed_alloc
   fun:htab_create
   fun:_Z12linemap_initP9line_mapsj
   fun:_ZN6toplev4mainEiPPc
   fun:main
}
{
   <insert_a_suppression_name_here>
   Memcheck:Leak
   match-leak-kinds: reachable
   fun:calloc
   fun:htab_create_typed_alloc
   fun:htab_create_alloc
   fun:_cpp_init_files
   fun:_Z17cpp_create_reader6c_langP2htP9line_maps
   fun:_Z21c_common_init_optionsjP17cl_decoded_option
   fun:_ZN6toplev4mainEiPPc
   fun:main
}
{
   <insert_a_suppression_name_here>
   Memcheck:Leak
   match-leak-kinds: reachable
   fun:calloc
   fun:_Z18ggc_internal_allocmPFvPvEmm
   fun:_Z9make_node9tree_code
   fun:_Z19ht_lookup_with_hashP2htPKhmj16ht_lookup_option
   fun:_Z12c_parse_initv
   fun:_Z22c_init_decl_processingv
   fun:_Z18c_objc_common_initv
   fun:_ZN6toplev4mainEiPPc
   fun:main
}
{
   <insert_a_suppression_name_here>
   Memcheck:Leak
   match-leak-kinds: reachable
   fun:calloc
   fun:_Z18ggc_internal_allocmPFvPvEmm
   fun:_Z9make_node9tree_code
   obj:/usr/lib/gcc/x86_64-linux-gnu/11/cc1
   fun:_Z18ix86_init_builtinsv
   fun:_Z27c_common_nodes_and_builtinsv
   fun:_Z22c_init_decl_processingv
   fun:_Z18c_objc_common_initv
   fun:_ZN6toplev4mainEiPPc
   fun:main
}
{
   <insert_a_suppression_name_here>
   Memcheck:Leak
   match-leak-kinds: reachable
   fun:calloc
   fun:_Z18ggc_internal_allocmPFvPvEmm
   fun:_Z9make_node9tree_code
   fun:_Z19build_function_typeP9tree_nodeS0_
   obj:/usr/lib/gcc/x86_64-linux-gnu/11/cc1
   fun:_Z18ix86_init_builtinsv
   fun:_Z27c_common_nodes_and_builtinsv
   fun:_Z22c_init_decl_processingv
   fun:_Z18c_objc_common_initv
   fun:_ZN6toplev4mainEiPPc
   fun:main
}
{
   <insert_a_suppression_name_here>
   Memcheck:Leak
   match-leak-kinds: reachable
   fun:calloc
   fun:_Z18ggc_internal_allocmPFvPvEmm
   fun:_Z9make_node9tree_code
   fun:_Z19ht_lookup_with_hashP2htPKhmj16ht_lookup_option
   obj:/usr/lib/gcc/x86_64-linux-gnu/11/cc1
   fun:_cpp_lex_direct
   fun:_cpp_lex_token
   obj:/usr/lib/gcc/x86_64-linux-gnu/11/cc1
   fun:_cpp_handle_directive
   fun:_cpp_lex_token
   obj:/usr/lib/gcc/x86_64-linux-gnu/11/cc1
   fun:_Z16c_lex_with_flagsPP9tree_nodePjPhi
}
{
   <insert_a_suppression_name_here>
   Memcheck:Leak
   match-leak-kinds: reachable
   fun:malloc
   fun:xstrdup
   fun:_cpp_find_file
   fun:_cpp_stack_include
   obj:/usr/lib/gcc/x86_64-linux-gnu/11/cc1
   fun:_cpp_handle_directive
   fun:_cpp_lex_token
   obj:/usr/lib/gcc/x86_64-linux-gnu/11/cc1
   fun:_Z16c_lex_with_flagsPP9tree_nodePjPhi
   obj:/usr/lib/gcc/x86_64-linux-gnu/11/cc1
   fun:_Z12c_parse_filev
   fun:_Z19c_common_parse_filev
}
{
   <insert_a_suppression_name_here>
   Memcheck:Leak
   match-leak-kinds: reachable
   fun:calloc
   fun:_Z18ggc_internal_allocmPFvPvEmm
   fun:_Z21c_common_init_optionsjP17cl_decoded_option
   fun:_ZN6toplev4mainEiPPc
   fun:main
}
{
   <insert_a_suppression_name_here>
   Memcheck:Leak
   match-leak-kinds: reachable
   fun:calloc
   fun:_Z18ggc_internal_allocmPFvPvEmm
   fun:_Z19ht_lookup_with_hashP2htPKhmj16ht_lookup_option
   obj:/usr/lib/gcc/x86_64-linux-gnu/11/cc1
   fun:_cpp_lex_direct
   fun:_cpp_lex_token
   obj:/usr/lib/gcc/x86_64-linux-gnu/11/cc1
   obj:/usr/lib/gcc/x86_64-linux-gnu/11/cc1
   fun:_Z10cpp_defineP10cpp_readerPKc
   obj:/usr/lib/gcc/x86_64-linux-gnu/11/cc1
   fun:_Z18ix86_target_macrosv
   fun:_Z14c_cpp_builtinsP10cpp_reader
}
{
   <insert_a_suppression_name_here>
   Memcheck:Leak
   match-leak-kinds: reachable
   fun:realloc
   fun:xrealloc
   fun:_cpp_save_parameter
   fun:_cpp_create_definition
   obj:/usr/lib/gcc/x86_64-linux-gnu/11/cc1
   fun:_cpp_handle_directive
   fun:_cpp_lex_token
   obj:/usr/lib/gcc/x86_64-linux-gnu/11/cc1
   fun:_Z16c_lex_with_flagsPP9tree_nodePjPhi
   obj:/usr/lib/gcc/x86_64-linux-gnu/11/cc1
   fun:_Z19c_parser_peek_tokenP8c_parser
   fun:_Z12c_parse_filev
}
{
   <insert_a_suppression_name_here>
   Memcheck:Leak
   match-leak-kinds: reachable
   fun:calloc
   fun:_Z18ggc_internal_allocmPFvPvEmm
   fun:_Z19ht_lookup_with_hashP2htPKhmj16ht_lookup_option
   obj:/usr/lib/gcc/x86_64-linux-gnu/11/cc1
   fun:_cpp_lex_direct
   fun:_cpp_lex_token
   obj:/usr/lib/gcc/x86_64-linux-gnu/11/cc1
   fun:_Z16c_lex_with_flagsPP9tree_nodePjPhi
   obj:/usr/lib/gcc/x86_64-linux-gnu/11/cc1
   fun:_Z12c_parse_filev
   fun:_Z19c_common_parse_filev
   obj:/usr/lib/gcc/x86_64-linux-gnu/11/cc1
}
{
   <insert_a_suppression_name_here>
   Memcheck:Leak
   match-leak-kinds: reachable
   fun:calloc
   fun:_Z18ggc_internal_allocmPFvPvEmm
   fun:_Z13get_parm_infobP9tree_node
   obj:/usr/lib/gcc/x86_64-linux-gnu/11/cc1
   obj:/usr/lib/gcc/x86_64-linux-gnu/11/cc1
   obj:/usr/lib/gcc/x86_64-linux-gnu/11/cc1
   obj:/usr/lib/gcc/x86_64-linux-gnu/11/cc1
   obj:/usr/lib/gcc/x86_64-linux-gnu/11/cc1
   fun:_Z12c_parse_filev
   fun:_Z19c_common_parse_filev
   obj:/usr/lib/gcc/x86_64-linux-gnu/11/cc1
   fun:_ZN6toplev4mainEiPPc
}
{
   <insert_a_suppression_name_here>
   Memcheck:Leak
   match-leak-kinds: reachable
   fun:calloc
   fun:_Z18ggc_internal_allocmPFvPvEmm
   fun:_Z15decl_attributesPP9tree_nodeS0_iS0_
   fun:_Z10start_declP12c_declaratorP11c_declspecsbP9tree_nodePj
   obj:/usr/lib/gcc/x86_64-linux-gnu/11/cc1
   obj:/usr/lib/gcc/x86_64-linux-gnu/11/cc1
   fun:_Z12c_parse_filev
   fun:_Z19c_common_parse_filev
   obj:/usr/lib/gcc/x86_64-linux-gnu/11/cc1
   fun:_ZN6toplev4mainEiPPc
   fun:main
}
{
   <insert_a_suppression_name_here>
   Memcheck:Leak
   match-leak-kinds: reachable
   fun:calloc
   fun:xcalloc
   fun:_Z9ht_createj
   fun:_Z15init_stringpoolv
   fun:_ZN6toplev4mainEiPPc
   fun:main
}
{
   <insert_a_suppression_name_here>
   Memcheck:Leak
   match-leak-kinds: reachable
   fun:_Znwm
   fun:_Z23make_pass_store_mergingPN3gcc7contextE
   fun:_ZN3gcc12pass_managerC1EPNS_7contextE
   fun:_ZN6toplev4mainEiPPc
   fun:main
}
{
   <insert_a_suppression_name_here>
   Memcheck:Leak
   match-leak-kinds: reachable
   fun:_Znwm
   fun:_Z18make_pass_analyzerPN3gcc7contextE
   fun:_ZN3gcc12pass_managerC1EPNS_7contextE
   fun:_ZN6toplev4mainEiPPc
   fun:main
}
{
   <insert_a_suppression_name_here>
   Memcheck:Leak
   match-leak-kinds: reachable
   fun:_Znwm
   fun:_Z17make_pass_ipa_odrPN3gcc7contextE
   fun:_ZN3gcc12pass_managerC1EPNS_7contextE
   fun:_ZN6toplev4mainEiPPc
   fun:main
}
{
   <insert_a_suppression_name_here>
   Memcheck:Leak
   match-leak-kinds: reachable
   fun:_Znwm
   fun:_Z38make_pass_ipa_whole_program_visibilityPN3gcc7contextE
   fun:_ZN3gcc12pass_managerC1EPNS_7contextE
   fun:_ZN6toplev4mainEiPPc
   fun:main
}
{
   <insert_a_suppression_name_here>
   Memcheck:Leak
   match-leak-kinds: reachable
   fun:_Znwm
   fun:_Z21make_pass_ipa_profilePN3gcc7contextE
   fun:_ZN3gcc12pass_managerC1EPNS_7contextE
   fun:_ZN6toplev4mainEiPPc
   fun:main
}
{
   <insert_a_suppression_name_here>
   Memcheck:Leak
   match-leak-kinds: reachable
   fun:_Znwm
   fun:_Z17make_pass_ipa_icfPN3gcc7contextE
   fun:_ZN3gcc12pass_managerC1EPNS_7contextE
   fun:_ZN6toplev4mainEiPPc
   fun:main
}
{
   <insert_a_suppression_name_here>
   Memcheck:Leak
   match-leak-kinds: reachable
   fun:_Znwm
   fun:_Z20make_pass_ipa_devirtPN3gcc7contextE
   fun:_ZN3gcc12pass_managerC1EPNS_7contextE
   fun:_ZN6toplev4mainEiPPc
   fun:main
}
{
   <insert_a_suppression_name_here>
   Memcheck:Leak
   match-leak-kinds: reachable
   fun:_Znwm
   fun:_Z16make_pass_ipa_cpPN3gcc7contextE
   fun:_ZN3gcc12pass_managerC1EPNS_7contextE
   fun:_ZN6toplev4mainEiPPc
   fun:main
}
{
   <insert_a_suppression_name_here>
   Memcheck:Leak
   match-leak-kinds: reachable
   fun:_Znwm
   fun:_Z17make_pass_ipa_sraPN3gcc7contextE
   fun:_ZN3gcc12pass_managerC1EPNS_7contextE
   fun:_ZN6toplev4mainEiPPc
   fun:main
}
{
   <insert_a_suppression_name_here>
   Memcheck:Leak
   match-leak-kinds: reachable
   fun:_Znwm
   fun:_Z25make_pass_ipa_cdtor_mergePN3gcc7contextE
   fun:_ZN3gcc12pass_managerC1EPNS_7contextE
   fun:_ZN6toplev4mainEiPPc
   fun:main
}
{
   <insert_a_suppression_name_here>
   Memcheck:Leak
   match-leak-kinds: reachable
   fun:_Znwm
   fun:_Z24make_pass_ipa_fn_summaryPN3gcc7contextE
   fun:_ZN3gcc12pass_managerC1EPNS_7contextE
   fun:_ZN6toplev4mainEiPPc
   fun:main
}
{
   <insert_a_suppression_name_here>
   Memcheck:Leak
   match-leak-kinds: reachable
   fun:_Znwm
   fun:_Z20make_pass_ipa_inlinePN3gcc7contextE
   fun:_ZN3gcc12pass_managerC1EPNS_7contextE
   fun:_ZN6toplev4mainEiPPc
   fun:main
}
{
   <insert_a_suppression_name_here>
   Memcheck:Leak
   match-leak-kinds: reachable
   fun:_Znwm
   fun:_Z20make_pass_ipa_modrefPN3gcc7contextE
   fun:_ZN3gcc12pass_managerC1EPNS_7contextE
   fun:_ZN6toplev4mainEiPPc
   fun:main
}
{
   <insert_a_suppression_name_here>
   Memcheck:Leak
   match-leak-kinds: reachable
   fun:_Znwm
   fun:_Z23make_pass_ipa_referencePN3gcc7contextE
   fun:_ZN3gcc12pass_managerC1EPNS_7contextE
   fun:_ZN6toplev4mainEiPPc
   fun:main
}
{
   <insert_a_suppression_name_here>
   Memcheck:Leak
   match-leak-kinds: reachable
   fun:_Znwm
   fun:_Z24make_pass_ipa_single_usePN3gcc7contextE
   fun:_ZN3gcc12pass_managerC1EPNS_7contextE
   fun:_ZN6toplev4mainEiPPc
   fun:main
}
{
   <insert_a_suppression_name_here>
   Memcheck:Leak
   match-leak-kinds: reachable
   fun:_Znwm
   fun:_Z21make_pass_ipa_comdatsPN3gcc7contextE
   fun:_ZN3gcc12pass_managerC1EPNS_7contextE
   fun:_ZN6toplev4mainEiPPc
   fun:main
}
{
   <insert_a_suppression_name_here>
   Memcheck:Leak
   match-leak-kinds: reachable
   fun:_Znwm
   fun:_Z24make_pass_ipa_pure_constPN3gcc7contextE
   fun:_ZN3gcc12pass_managerC1EPNS_7contextE
   fun:_ZN6toplev4mainEiPPc
   fun:main
}
{
   <insert_a_suppression_name_here>
   Memcheck:Leak
   match-leak-kinds: reachable
   fun:calloc
   fun:_Z18ggc_internal_allocmPFvPvEmm
   fun:_Z9copy_nodeP9tree_node
   fun:_Z19set_underlying_typeP9tree_node
   fun:_Z8pushdeclP9tree_node
   fun:_Z10start_declP12c_declaratorP11c_declspecsbP9tree_nodePj
   obj:/usr/lib/gcc/x86_64-linux-gnu/11/cc1
   obj:/usr/lib/gcc/x86_64-linux-gnu/11/cc1
   fun:_Z12c_parse_filev
   fun:_Z19c_common_parse_filev
   obj:/usr/lib/gcc/x86_64-linux-gnu/11/cc1
   fun:_ZN6toplev4mainEiPPc
}
{
   <insert_a_suppression_name_here>
   Memcheck:Leak
   match-leak-kinds: reachable
   fun:calloc
   fun:_Z18ggc_internal_allocmPFvPvEmm
   fun:_Z9make_node9tree_code
   fun:_Z10build_declj9tree_codeP9tree_nodeS1_
   obj:/usr/lib/gcc/x86_64-linux-gnu/11/cc1
   fun:_Z10start_declP12c_declaratorP11c_declspecsbP9tree_nodePj
   obj:/usr/lib/gcc/x86_64-linux-gnu/11/cc1
   obj:/usr/lib/gcc/x86_64-linux-gnu/11/cc1
   fun:_Z12c_parse_filev
   fun:_Z19c_common_parse_filev
   obj:/usr/lib/gcc/x86_64-linux-gnu/11/cc1
   fun:_ZN6toplev4mainEiPPc
}
{
   <insert_a_suppression_name_here>
   Memcheck:Leak
   match-leak-kinds: reachable
   fun:calloc
   fun:_Z18ggc_internal_allocmPFvPvEmm
   fun:_Z9make_node9tree_code
   fun:_Z19build_function_typeP9tree_nodeS0_
   fun:_Z19build_function_typeP9tree_nodeS0_
   obj:/usr/lib/gcc/x86_64-linux-gnu/11/cc1
   fun:_Z10start_declP12c_declaratorP11c_declspecsbP9tree_nodePj
   obj:/usr/lib/gcc/x86_64-linux-gnu/11/cc1
   obj:/usr/lib/gcc/x86_64-linux-gnu/11/cc1
   fun:_Z12c_parse_filev
   fun:_Z19c_common_parse_filev
   obj:/usr/lib/gcc/x86_64-linux-gnu/11/cc1
}
{
   <insert_a_suppression_name_here>
   Memcheck:Leak
   match-leak-kinds: reachable
   fun:calloc
   fun:_Z18ggc_internal_allocmPFvPvEmm
   fun:_Z9make_node9tree_code
   fun:_Z19ht_lookup_with_hashP2htPKhmj16ht_lookup_option
   obj:/usr/lib/gcc/x86_64-linux-gnu/11/cc1
   fun:_cpp_lex_direct
   fun:_cpp_lex_token
   obj:/usr/lib/gcc/x86_64-linux-gnu/11/cc1
   fun:_Z16c_lex_with_flagsPP9tree_nodePjPhi
   obj:/usr/lib/gcc/x86_64-linux-gnu/11/cc1
   fun:_Z18c_parser_declspecsP8c_parserP11c_declspecsbbbbbbb16c_lookahead_kind
   obj:/usr/lib/gcc/x86_64-linux-gnu/11/cc1
}
{
   <insert_a_suppression_name_here>
   Memcheck:Leak
   match-leak-kinds: reachable
   fun:calloc
   fun:_Z18ggc_internal_allocmPFvPvEmm
   fun:_Z15type_hash_canonjP9tree_node
   fun:_Z33build_type_attribute_qual_variantP9tree_nodeS0_i
   fun:_Z15decl_attributesPP9tree_nodeS0_iS0_
   fun:_Z10start_declP12c_declaratorP11c_declspecsbP9tree_nodePj
   obj:/usr/lib/gcc/x86_64-linux-gnu/11/cc1
   obj:/usr/lib/gcc/x86_64-linux-gnu/11/cc1
   fun:_Z12c_parse_filev
   fun:_Z19c_common_parse_filev
   obj:/usr/lib/gcc/x86_64-linux-gnu/11/cc1
   fun:_ZN6toplev4mainEiPPc
}
{
   <insert_a_suppression_name_here>
   Memcheck:Leak
   match-leak-kinds: reachable
   fun:malloc
   fun:xstrdup
   fun:_cpp_find_file
   fun:_cpp_stack_include
   obj:/usr/lib/gcc/x86_64-linux-gnu/11/cc1
   fun:_cpp_handle_directive
   fun:_cpp_lex_token
   obj:/usr/lib/gcc/x86_64-linux-gnu/11/cc1
   fun:_Z16c_lex_with_flagsPP9tree_nodePjPhi
   obj:/usr/lib/gcc/x86_64-linux-gnu/11/cc1
   fun:_Z19c_parser_peek_tokenP8c_parser
   fun:_Z12c_parse_filev
}
{
   <insert_a_suppression_name_here>
   Memcheck:Leak
   match-leak-kinds: reachable
   fun:calloc
   fun:xcalloc
   fun:_Z13lra_eliminatebb
   fun:_Z15lra_constraintsb
   fun:_Z3lraP8_IO_FILE
   obj:/usr/lib/gcc/x86_64-linux-gnu/11/cc1
   fun:_Z16execute_one_passP8opt_pass
   fun:_Z17execute_pass_listP8functionP8opt_pass
   fun:_ZN11cgraph_node6expandEv
   fun:_ZN12symbol_table7compileEv
   fun:_ZN12symbol_table25finalize_compilation_unitEv
   obj:/usr/lib/gcc/x86_64-linux-gnu/11/cc1
}
{
   <insert_a_suppression_name_here>
   Memcheck:Leak
   match-leak-kinds: reachable
   fun:calloc
   fun:_Z18ggc_internal_allocmPFvPvEmm
   fun:_Z9tree_consP9tree_nodeS0_S0_
   fun:_Z18c_parser_declspecsP8c_parserP11c_declspecsbbbbbbb16c_lookahead_kind
   obj:/usr/lib/gcc/x86_64-linux-gnu/11/cc1
   obj:/usr/lib/gcc/x86_64-linux-gnu/11/cc1
   fun:_Z12c_parse_filev
   fun:_Z19c_common_parse_filev
   obj:/usr/lib/gcc/x86_64-linux-gnu/11/cc1
   fun:_ZN6toplev4mainEiPPc
   fun:main
}
{
   <insert_a_suppression_name_here>
   Memcheck:Leak
   match-leak-kinds: reachable
   fun:malloc
   fun:concat
   fun:_ZN3gcc12pass_manager22register_one_dump_fileEP8opt_pass
   fun:_ZN3gcc12pass_manager19register_dump_filesEP8opt_pass
   fun:_ZN3gcc12pass_manager19register_dump_filesEP8opt_pass
   fun:_ZN3gcc12pass_manager19register_dump_filesEP8opt_pass
   fun:_ZN3gcc12pass_managerC1EPNS_7contextE
   fun:_ZN6toplev4mainEiPPc
   fun:main
}
{
   <insert_a_suppression_name_here>
   Memcheck:Leak
   match-leak-kinds: reachable
   fun:calloc
   fun:xcalloc
   fun:_Z23make_pass_store_mergingPN3gcc7contextE
   fun:_ZN3gcc12pass_managerC1EPNS_7contextE
   fun:_ZN6toplev4mainEiPPc
   fun:main
}
{
   <insert_a_suppression_name_here>
   Memcheck:Leak
   match-leak-kinds: reachable
   fun:calloc
   fun:_Z18ggc_internal_allocmPFvPvEmm
   fun:_Z19ht_lookup_with_hashP2htPKhmj16ht_lookup_option
   obj:/usr/lib/gcc/x86_64-linux-gnu/11/cc1
   fun:_cpp_lex_direct
   fun:_cpp_lex_token
   obj:/usr/lib/gcc/x86_64-linux-gnu/11/cc1
   fun:_Z16c_lex_with_flagsPP9tree_nodePjPhi
   obj:/usr/lib/gcc/x86_64-linux-gnu/11/cc1
   fun:_Z19c_parser_peek_tokenP8c_parser
   fun:_Z18c_parser_declspecsP8c_parserP11c_declspecsbbbbbbb16c_lookahead_kind
   obj:/usr/lib/gcc/x86_64-linux-gnu/11/cc1
}
{
   <insert_a_suppression_name_here>
   Memcheck:Leak
   match-leak-kinds: reachable
   fun:malloc
   fun:_ZN3gcc12pass_manager18register_pass_nameEP8opt_passPKc
   fun:_ZN3gcc12pass_manager22register_one_dump_fileEP8opt_pass
   fun:_ZN3gcc12pass_manager19register_dump_filesEP8opt_pass
   fun:_ZN3gcc12pass_manager19register_dump_filesEP8opt_pass
   fun:_ZN3gcc12pass_managerC1EPNS_7contextE
   fun:_ZN6toplev4mainEiPPc
   fun:main
}
{
   <insert_a_suppression_name_here>
   Memcheck:Leak
   match-leak-kinds: reachable
   fun:calloc
   fun:_Z18ggc_internal_allocmPFvPvEmm
   fun:_Z19linemap_enter_macroP9line_mapsP12cpp_hashnodejj
   obj:/usr/lib/gcc/x86_64-linux-gnu/11/cc1
   obj:/usr/lib/gcc/x86_64-linux-gnu/11/cc1
   fun:_cpp_parse_expr
   obj:/usr/lib/gcc/x86_64-linux-gnu/11/cc1
   fun:_cpp_handle_directive
   fun:_cpp_lex_token
   obj:/usr/lib/gcc/x86_64-linux-gnu/11/cc1
   fun:_Z16c_lex_with_flagsPP9tree_nodePjPhi
   obj:/usr/lib/gcc/x86_64-linux-gnu/11/cc1
}
{
   <insert_a_suppression_name_here>
   Memcheck:Leak
   match-leak-kinds: reachable
   fun:calloc
   fun:_Z18ggc_internal_allocmPFvPvEmm
   fun:_Z19linemap_enter_macroP9line_mapsP12cpp_hashnodejj
   obj:/usr/lib/gcc/x86_64-linux-gnu/11/cc1
   obj:/usr/lib/gcc/x86_64-linux-gnu/11/cc1
   fun:_Z16c_lex_with_flagsPP9tree_nodePjPhi
   obj:/usr/lib/gcc/x86_64-linux-gnu/11/cc1
   obj:/usr/lib/gcc/x86_64-linux-gnu/11/cc1
   obj:/usr/lib/gcc/x86_64-linux-gnu/11/cc1
   obj:/usr/lib/gcc/x86_64-linux-gnu/11/cc1
   fun:_Z12c_parse_filev
   fun:_Z19c_common_parse_filev
}
{
   <insert_a_suppression_name_here>
   Memcheck:Leak
   match-leak-kinds: reachable
   fun:calloc
   fun:xcalloc
   fun:_cpp_find_file
   fun:_Z18cpp_read_main_fileP10cpp_readerPKcb
   fun:_Z21c_common_post_optionsPPKc
   fun:_ZN6toplev4mainEiPPc
   fun:main
}
{
   <insert_a_suppression_name_here>
   Memcheck:Leak
   match-leak-kinds: reachable
   fun:calloc
   fun:xcalloc
   fun:_cpp_find_file
   fun:_cpp_stack_include
   obj:/usr/lib/gcc/x86_64-linux-gnu/11/cc1
   fun:_Z19c_common_parse_filev
   obj:/usr/lib/gcc/x86_64-linux-gnu/11/cc1
   fun:_ZN6toplev4mainEiPPc
   fun:main
}
{
   <insert_a_suppression_name_here>
   Memcheck:Leak
   match-leak-kinds: reachable
   fun:calloc
   fun:xcalloc
   fun:_Z28build_type_inheritance_graphv
   fun:_ZN12symbol_table24remove_unreachable_nodesEP8_IO_FILE
   obj:/usr/lib/gcc/x86_64-linux-gnu/11/cc1
   fun:_Z16execute_one_passP8opt_pass
   fun:_Z21execute_ipa_pass_listP8opt_pass
   fun:_ZN12symbol_table7compileEv
   fun:_ZN12symbol_table25finalize_compilation_unitEv
   obj:/usr/lib/gcc/x86_64-linux-gnu/11/cc1
   fun:_ZN6toplev4mainEiPPc
   fun:main
}
{
   <insert_a_suppression_name_here>
   Memcheck:Leak
   match-leak-kinds: reachable
   fun:calloc
   obj:/usr/lib/gcc/x86_64-linux-gnu/11/cc1
   fun:_Z20statistics_fini_passv
   obj:/usr/lib/gcc/x86_64-linux-gnu/11/cc1
   fun:_Z16execute_one_passP8opt_pass
   fun:_Z21execute_ipa_pass_listP8opt_pass
   fun:_ZN12symbol_table7compileEv
   fun:_ZN12symbol_table25finalize_compilation_unitEv
   obj:/usr/lib/gcc/x86_64-linux-gnu/11/cc1
   fun:_ZN6toplev4mainEiPPc
   fun:main
}
{
   <insert_a_suppression_name_here>
   Memcheck:Leak
   match-leak-kinds: reachable
   fun:calloc
   fun:xcalloc
   obj:/usr/lib/gcc/x86_64-linux-gnu/11/cc1
   fun:_Z30calculate_elim_costs_all_insnsv
   fun:_Z9ira_costsv
   fun:_Z9ira_buildv
   obj:/usr/lib/gcc/x86_64-linux-gnu/11/cc1
   fun:_Z16execute_one_passP8opt_pass
   fun:_Z17execute_pass_listP8functionP8opt_pass
   fun:_ZN11cgraph_node6expandEv
   fun:_ZN12symbol_table7compileEv
   fun:_ZN12symbol_table25finalize_compilation_unitEv
}
{
   <insert_a_suppression_name_here>
   Memcheck:Leak
   match-leak-kinds: reachable
   fun:malloc
   fun:xmalloc
   fun:_Z8add_pathPc12incpath_kindib
   fun:_Z23register_include_chainsP10cpp_readerPKcS2_S2_iii
   fun:_Z21c_common_post_optionsPPKc
   fun:_ZN6toplev4mainEiPPc
   fun:main
}
{
   <insert_a_suppression_name_here>
   Memcheck:Leak
   match-leak-kinds: reachable
   fun:malloc
   fun:xmalloc
   fun:_Z21c_common_init_optionsjP17cl_decoded_option
   fun:_ZN6toplev4mainEiPPc
   fun:main
}
{
   <insert_a_suppression_name_here>
   Memcheck:Leak
   match-leak-kinds: reachable
   fun:_Znwm
   obj:/usr/lib/gcc/x86_64-linux-gnu/11/cc1
   fun:_Z20statistics_fini_passv
   obj:/usr/lib/gcc/x86_64-linux-gnu/11/cc1
   fun:_Z16execute_one_passP8opt_pass
   fun:_Z17execute_pass_listP8functionP8opt_pass
   fun:_ZN11cgraph_node7analyzeEv
   obj:/usr/lib/gcc/x86_64-linux-gnu/11/cc1
   fun:_ZN12symbol_table25finalize_compilation_unitEv
   obj:/usr/lib/gcc/x86_64-linux-gnu/11/cc1
   fun:_ZN6toplev4mainEiPPc
   fun:main
}
{
   <insert_a_suppression_name_here>
   Memcheck:Leak
   match-leak-kinds: reachable
   fun:malloc
   fun:_ZN3gcc12pass_manager18register_pass_nameEP8opt_passPKc
   fun:_ZN3gcc12pass_manager22register_one_dump_fileEP8opt_pass
   fun:_ZN3gcc12pass_manager19register_dump_filesEP8opt_pass
   fun:_ZN3gcc12pass_manager19register_dump_filesEP8opt_pass
   fun:_ZN3gcc12pass_manager19register_dump_filesEP8opt_pass
   fun:_ZN3gcc12pass_managerC1EPNS_7contextE
   fun:_ZN6toplev4mainEiPPc
   fun:main
}
{
   <insert_a_suppression_name_here>
   Memcheck:Leak
   match-leak-kinds: reachable
   fun:malloc
   fun:concat
   fun:_ZN3gcc12pass_manager22register_one_dump_fileEP8opt_pass
   fun:_ZN3gcc12pass_manager19register_dump_filesEP8opt_pass
   fun:_ZN3gcc12pass_manager19register_dump_filesEP8opt_pass
   fun:_ZN3gcc12pass_manager19register_dump_filesEP8opt_pass
   fun:_ZN6toplev4mainEiPPc
   fun:main
}
{
   <insert_a_suppression_name_here>
   Memcheck:Leak
   match-leak-kinds: reachable
   fun:malloc
   fun:_ZN3gcc12pass_manager18register_pass_nameEP8opt_passPKc
   fun:_ZN3gcc12pass_manager22register_one_dump_fileEP8opt_pass
   fun:_ZN3gcc12pass_manager19register_dump_filesEP8opt_pass
   fun:_ZN6toplev4mainEiPPc
   fun:main
}
{
   <insert_a_suppression_name_here>
   Memcheck:Leak
   match-leak-kinds: reachable
   fun:malloc
   fun:_cpp_find_file
   fun:_cpp_stack_include
   obj:/usr/lib/gcc/x86_64-linux-gnu/11/cc1
   fun:_cpp_handle_directive
   fun:_cpp_lex_token
   obj:/usr/lib/gcc/x86_64-linux-gnu/11/cc1
   fun:_Z16c_lex_with_flagsPP9tree_nodePjPhi
   obj:/usr/lib/gcc/x86_64-linux-gnu/11/cc1
   fun:_Z12c_parse_filev
   fun:_Z19c_common_parse_filev
   obj:/usr/lib/gcc/x86_64-linux-gnu/11/cc1
}
{
   <insert_a_suppression_name_here>
   Memcheck:Leak
   match-leak-kinds: reachable
   fun:calloc
   fun:_Z18ggc_internal_allocmPFvPvEmm
   fun:_cpp_create_definition
   obj:/usr/lib/gcc/x86_64-linux-gnu/11/cc1
   fun:_cpp_handle_directive
   fun:_cpp_lex_token
   obj:/usr/lib/gcc/x86_64-linux-gnu/11/cc1
   fun:_Z16c_lex_with_flagsPP9tree_nodePjPhi
   obj:/usr/lib/gcc/x86_64-linux-gnu/11/cc1
   fun:_Z19c_parser_peek_tokenP8c_parser
   fun:_Z12c_parse_filev
   fun:_Z19c_common_parse_filev
}
{
   <insert_a_suppression_name_here>
   Memcheck:Leak
   match-leak-kinds: reachable
   fun:calloc
   fun:_Z18ggc_internal_allocmPFvPvEmm
   fun:_Z9make_node9tree_code
   obj:/usr/lib/gcc/x86_64-linux-gnu/11/cc1
   fun:_Z10start_declP12c_declaratorP11c_declspecsbP9tree_nodePj
   obj:/usr/lib/gcc/x86_64-linux-gnu/11/cc1
   obj:/usr/lib/gcc/x86_64-linux-gnu/11/cc1
   fun:_Z12c_parse_filev
   fun:_Z19c_common_parse_filev
   obj:/usr/lib/gcc/x86_64-linux-gnu/11/cc1
   fun:_ZN6toplev4mainEiPPc
   fun:main
}
{
   <insert_a_suppression_name_here>
   Memcheck:Leak
   match-leak-kinds: reachable
   fun:calloc
   fun:_Z18ggc_internal_allocmPFvPvEmm
   fun:_Z9make_node9tree_code
   fun:_Z19ht_lookup_with_hashP2htPKhmj16ht_lookup_option
   obj:/usr/lib/gcc/x86_64-linux-gnu/11/cc1
   fun:_cpp_lex_direct
   fun:_cpp_lex_token
   obj:/usr/lib/gcc/x86_64-linux-gnu/11/cc1
   fun:_Z16c_lex_with_flagsPP9tree_nodePjPhi
   obj:/usr/lib/gcc/x86_64-linux-gnu/11/cc1
   fun:_Z19c_parser_peek_tokenP8c_parser
   fun:_Z18c_parser_declspecsP8c_parserP11c_declspecsbbbbbbb16c_lookahead_kind
}
{
   <insert_a_suppression_name_here>
   Memcheck:Leak
   match-leak-kinds: reachable
   fun:_Znwm
   obj:/usr/lib/gcc/x86_64-linux-gnu/11/cc1
   fun:_Z20statistics_fini_passv
   obj:/usr/lib/gcc/x86_64-linux-gnu/11/cc1
   fun:_Z16execute_one_passP8opt_pass
   fun:_Z17execute_pass_listP8functionP8opt_pass
   fun:_Z24do_per_function_toporderPFvP8functionPvES1_
   fun:_Z21execute_ipa_pass_listP8opt_pass
   fun:_ZN12symbol_table7compileEv
   fun:_ZN12symbol_table25finalize_compilation_unitEv
   obj:/usr/lib/gcc/x86_64-linux-gnu/11/cc1
   fun:_ZN6toplev4mainEiPPc
}
{
   <insert_a_suppression_name_here>
   Memcheck:Leak
   match-leak-kinds: reachable
   fun:_Znwm
   obj:/usr/lib/gcc/x86_64-linux-gnu/11/cc1
   fun:_Z20statistics_fini_passv
   obj:/usr/lib/gcc/x86_64-linux-gnu/11/cc1
   fun:_Z16execute_one_passP8opt_pass
   fun:_Z17execute_pass_listP8functionP8opt_pass
   fun:_ZN11cgraph_node6expandEv
   fun:_ZN12symbol_table7compileEv
   fun:_ZN12symbol_table25finalize_compilation_unitEv
   obj:/usr/lib/gcc/x86_64-linux-gnu/11/cc1
   fun:_ZN6toplev4mainEiPPc
   fun:main
}
{
   <insert_a_suppression_name_here>
   Memcheck:Leak
   match-leak-kinds: reachable
   fun:realloc
   fun:xrealloc
   obj:/usr/lib/gcc/x86_64-linux-gnu/11/cc1
   fun:_Z17c_register_pragmaPKcS0_PFvP10cpp_readerE
   fun:_Z11init_pragmav
   fun:_Z13c_common_initv
   fun:_ZN6toplev4mainEiPPc
   fun:main
}
{
   <insert_a_suppression_name_here>
   Memcheck:Leak
   match-leak-kinds: reachable
   fun:calloc
   fun:_Z18ggc_internal_allocmPFvPvEmm
   fun:_Z9make_node9tree_code
   obj:/usr/lib/gcc/x86_64-linux-gnu/11/cc1
   fun:_Z14push_parm_declPK6c_parmPP9tree_node
   obj:/usr/lib/gcc/x86_64-linux-gnu/11/cc1
   obj:/usr/lib/gcc/x86_64-linux-gnu/11/cc1
   obj:/usr/lib/gcc/x86_64-linux-gnu/11/cc1
   obj:/usr/lib/gcc/x86_64-linux-gnu/11/cc1
   obj:/usr/lib/gcc/x86_64-linux-gnu/11/cc1
   fun:_Z12c_parse_filev
   fun:_Z19c_common_parse_filev
}
{
   <insert_a_suppression_name_here>
   Memcheck:Leak
   match-leak-kinds: reachable
   fun:malloc
   fun:_cpp_find_file
   fun:_cpp_stack_include
   obj:/usr/lib/gcc/x86_64-linux-gnu/11/cc1
   fun:_cpp_handle_directive
   fun:_cpp_lex_token
   obj:/usr/lib/gcc/x86_64-linux-gnu/11/cc1
   fun:_Z16c_lex_with_flagsPP9tree_nodePjPhi
   obj:/usr/lib/gcc/x86_64-linux-gnu/11/cc1
   fun:_Z19c_parser_peek_tokenP8c_parser
   fun:_Z12c_parse_filev
   fun:_Z19c_common_parse_filev
}
{
   <insert_a_suppression_name_here>
   Memcheck:Leak
   match-leak-kinds: reachable
   fun:calloc
   obj:/usr/lib/gcc/x86_64-linux-gnu/11/cc1
   fun:_Z20statistics_fini_passv
   obj:/usr/lib/gcc/x86_64-linux-gnu/11/cc1
   fun:_Z16execute_one_passP8opt_pass
   obj:/usr/lib/gcc/x86_64-linux-gnu/11/cc1
   obj:/usr/lib/gcc/x86_64-linux-gnu/11/cc1
   fun:_Z17execute_pass_listP8functionP8opt_pass
   fun:_ZN11cgraph_node6expandEv
   fun:_ZN12symbol_table7compileEv
   fun:_ZN12symbol_table25finalize_compilation_unitEv
   obj:/usr/lib/gcc/x86_64-linux-gnu/11/cc1
}
{
   <insert_a_suppression_name_here>
   Memcheck:Leak
   match-leak-kinds: reachable
   fun:calloc
   fun:_Z18ggc_internal_allocmPFvPvEmm
   fun:_Z9make_node9tree_code
   fun:_Z10build_declj9tree_codeP9tree_nodeS1_
   fun:_Z16build_enumeratorjjP15c_enum_contentsP9tree_nodeS2_
   fun:_Z18c_parser_declspecsP8c_parserP11c_declspecsbbbbbbb16c_lookahead_kind
   obj:/usr/lib/gcc/x86_64-linux-gnu/11/cc1
   obj:/usr/lib/gcc/x86_64-linux-gnu/11/cc1
   fun:_Z12c_parse_filev
   fun:_Z19c_common_parse_filev
   obj:/usr/lib/gcc/x86_64-linux-gnu/11/cc1
   fun:_ZN6toplev4mainEiPPc
}
{
   <insert_a_suppression_name_here>
   Memcheck:Leak
   match-leak-kinds: reachable
   fun:_Znwm
   obj:/usr/lib/gcc/x86_64-linux-gnu/11/cc1
   fun:_Z20statistics_fini_passv
   obj:/usr/lib/gcc/x86_64-linux-gnu/11/cc1
   fun:_Z16execute_one_passP8opt_pass
   obj:/usr/lib/gcc/x86_64-linux-gnu/11/cc1
   fun:_Z17execute_pass_listP8functionP8opt_pass
   fun:_ZN11cgraph_node6expandEv
   fun:_ZN12symbol_table7compileEv
   fun:_ZN12symbol_table25finalize_compilation_unitEv
   obj:/usr/lib/gcc/x86_64-linux-gnu/11/cc1
   fun:_ZN6toplev4mainEiPPc
}
{
   <insert_a_suppression_name_here>
   Memcheck:Leak
   match-leak-kinds: reachable
   fun:malloc
   fun:concat
   fun:_ZN3gcc12pass_manager22register_one_dump_fileEP8opt_pass
   fun:_ZN3gcc12pass_manager19register_dump_filesEP8opt_pass
   fun:_ZN3gcc12pass_manager19register_dump_filesEP8opt_pass
   fun:_ZN6toplev4mainEiPPc
   fun:main
}
{
   <insert_a_suppression_name_here>
   Memcheck:Leak
   match-leak-kinds: reachable
   fun:realloc
   fun:xrealloc
   fun:_Z18ggc_internal_allocmPFvPvEmm
   fun:_Z15init_temp_slotsv
   obj:/usr/lib/gcc/x86_64-linux-gnu/11/cc1
   fun:_Z14initialize_rtlv
   fun:_Z19init_function_startP9tree_node
   fun:_ZN11cgraph_node6expandEv
   fun:_ZN12symbol_table7compileEv
   fun:_ZN12symbol_table25finalize_compilation_unitEv
   obj:/usr/lib/gcc/x86_64-linux-gnu/11/cc1
   fun:_ZN6toplev4mainEiPPc
}
{
   <insert_a_suppression_name_here>
   Memcheck:Leak
   match-leak-kinds: reachable
   fun:malloc
   fun:xrealloc
   fun:_cpp_expand_op_stack
   fun:_Z17cpp_create_reader6c_langP2htP9line_maps
   fun:_Z21c_common_init_optionsjP17cl_decoded_option
   fun:_ZN6toplev4mainEiPPc
   fun:main
}
{
   <insert_a_suppression_name_here>
   Memcheck:Leak
   match-leak-kinds: reachable
   fun:malloc
   fun:_ZN3gcc12pass_manager18register_pass_nameEP8opt_passPKc
   fun:_ZN3gcc12pass_manager22register_one_dump_fileEP8opt_pass
   fun:_ZN3gcc12pass_manager19register_dump_filesEP8opt_pass
   fun:_ZN3gcc12pass_manager19register_dump_filesEP8opt_pass
   fun:_ZN3gcc12pass_manager19register_dump_filesEP8opt_pass
   fun:_ZN6toplev4mainEiPPc
   fun:main
}
{
   <insert_a_suppression_name_here>
   Memcheck:Leak
   match-leak-kinds: reachable
   fun:calloc
   obj:/usr/lib/gcc/x86_64-linux-gnu/11/cc1
   fun:_Z20statistics_fini_passv
   obj:/usr/lib/gcc/x86_64-linux-gnu/11/cc1
   fun:_Z16execute_one_passP8opt_pass
   fun:_Z17execute_pass_listP8functionP8opt_pass
   fun:_ZN11cgraph_node7analyzeEv
   obj:/usr/lib/gcc/x86_64-linux-gnu/11/cc1
   fun:_ZN12symbol_table25finalize_compilation_unitEv
   obj:/usr/lib/gcc/x86_64-linux-gnu/11/cc1
   fun:_ZN6toplev4mainEiPPc
   fun:main
}
{
   <insert_a_suppression_name_here>
   Memcheck:Leak
   match-leak-kinds: reachable
   fun:realloc
   fun:xrealloc
   fun:_Z31decode_cmdline_options_to_arrayjPPKcjPP17cl_decoded_optionPj
   fun:_ZN6toplev4mainEiPPc
   fun:main
}
{
   <insert_a_suppression_name_here>
   Memcheck:Leak
   match-leak-kinds: reachable
   fun:malloc
   fun:xrealloc
   obj:/usr/lib/gcc/x86_64-linux-gnu/11/cc1
   fun:_Z26register_scoped_attributesPK14attribute_specPKc
   fun:_Z22c_init_decl_processingv
   fun:_Z18c_objc_common_initv
   fun:_ZN6toplev4mainEiPPc
   fun:main
}
{
   <insert_a_suppression_name_here>
   Memcheck:Leak
   match-leak-kinds: reachable
   fun:calloc
   fun:xcalloc
   fun:_Z17cpp_create_reader6c_langP2htP9line_maps
   fun:_Z21c_common_init_optionsjP17cl_decoded_option
   fun:_ZN6toplev4mainEiPPc
   fun:main
}
{
   <insert_a_suppression_name_here>
   Memcheck:Leak
   match-leak-kinds: reachable
   fun:calloc
   fun:xcalloc
   fun:_cpp_find_file
   fun:_cpp_stack_include
   obj:/usr/lib/gcc/x86_64-linux-gnu/11/cc1
   fun:_cpp_handle_directive
   fun:_cpp_lex_token
   obj:/usr/lib/gcc/x86_64-linux-gnu/11/cc1
   fun:_Z16c_lex_with_flagsPP9tree_nodePjPhi
   obj:/usr/lib/gcc/x86_64-linux-gnu/11/cc1
   fun:_Z12c_parse_filev
   fun:_Z19c_common_parse_filev
}
{
   <insert_a_suppression_name_here>
   Memcheck:Leak
   match-leak-kinds: reachable
   fun:malloc
   fun:_ZN3gcc12pass_manager18register_pass_nameEP8opt_passPKc
   fun:_ZN3gcc12pass_manager22register_one_dump_fileEP8opt_pass
   fun:_ZN3gcc12pass_manager19register_dump_filesEP8opt_pass
   fun:_ZN3gcc12pass_manager19register_dump_filesEP8opt_pass
   fun:_ZN6toplev4mainEiPPc
   fun:main
}
{
   <insert_a_suppression_name_here>
   Memcheck:Leak
   match-leak-kinds: reachable
   fun:calloc
   obj:/usr/lib/gcc/x86_64-linux-gnu/11/cc1
   fun:_Z20statistics_fini_passv
   obj:/usr/lib/gcc/x86_64-linux-gnu/11/cc1
   fun:_Z16execute_one_passP8opt_pass
   fun:_Z17execute_pass_listP8functionP8opt_pass
   fun:_Z24do_per_function_toporderPFvP8functionPvES1_
   fun:_Z21execute_ipa_pass_listP8opt_pass
   fun:_ZN12symbol_table7compileEv
   fun:_ZN12symbol_table25finalize_compilation_unitEv
   obj:/usr/lib/gcc/x86_64-linux-gnu/11/cc1
   fun:_ZN6toplev4mainEiPPc
}
{
   <insert_a_suppression_name_here>
   Memcheck:Leak
   match-leak-kinds: reachable
   fun:calloc
   obj:/usr/lib/gcc/x86_64-linux-gnu/11/cc1
   fun:_Z20statistics_fini_passv
   obj:/usr/lib/gcc/x86_64-linux-gnu/11/cc1
   fun:_Z16execute_one_passP8opt_pass
   fun:_Z17execute_pass_listP8functionP8opt_pass
   fun:_ZN11cgraph_node6expandEv
   fun:_ZN12symbol_table7compileEv
   fun:_ZN12symbol_table25finalize_compilation_unitEv
   obj:/usr/lib/gcc/x86_64-linux-gnu/11/cc1
   fun:_ZN6toplev4mainEiPPc
   fun:main
}
{
   <insert_a_suppression_name_here>
   Memcheck:Leak
   match-leak-kinds: reachable
   fun:calloc
   fun:xcalloc
   fun:_Z26register_scoped_attributesPK14attribute_specPKc
   fun:_Z22c_init_decl_processingv
   fun:_Z18c_objc_common_initv
   fun:_ZN6toplev4mainEiPPc
   fun:main
}
{
   <insert_a_suppression_name_here>
   Memcheck:Leak
   match-leak-kinds: reachable
   fun:calloc
   fun:xcalloc
   fun:_Z26register_scoped_attributesPK14attribute_specPKc
   fun:_Z15init_attributesv
   fun:_Z15decl_attributesPP9tree_nodeS0_iS0_
   obj:/usr/lib/gcc/x86_64-linux-gnu/11/cc1
   obj:/usr/lib/gcc/x86_64-linux-gnu/11/cc1
   fun:_Z27c_common_nodes_and_builtinsv
   fun:_Z22c_init_decl_processingv
   fun:_Z18c_objc_common_initv
   fun:_ZN6toplev4mainEiPPc
   fun:main
}
{
   <insert_a_suppression_name_here>
   Memcheck:Leak
   match-leak-kinds: reachable
   fun:calloc
   fun:xcalloc
   obj:/usr/lib/gcc/x86_64-linux-gnu/11/cc1
   fun:_Z18ggc_internal_allocmPFvPvEmm
   fun:_ZN6toplev4mainEiPPc
   fun:main
}
{
   <insert_a_suppression_name_here>
   Memcheck:Leak
   match-leak-kinds: reachable
   fun:malloc
   fun:xrealloc
   fun:_Z26register_scoped_attributesPK14attribute_specPKc
   fun:_Z22c_init_decl_processingv
   fun:_Z18c_objc_common_initv
   fun:_ZN6toplev4mainEiPPc
   fun:main
}
{
   <insert_a_suppression_name_here>
   Memcheck:Leak
   match-leak-kinds: reachable
   fun:realloc
   fun:_ZN3gcc12pass_manager22register_one_dump_fileEP8opt_pass
   fun:_ZN3gcc12pass_manager19register_dump_filesEP8opt_pass
   fun:_ZN3gcc12pass_manager19register_dump_filesEP8opt_pass
   fun:_ZN6toplev4mainEiPPc
   fun:main
}
{
   <insert_a_suppression_name_here>
   Memcheck:Leak
   match-leak-kinds: reachable
   fun:realloc
   obj:/usr/lib/gcc/x86_64-linux-gnu/11/cc1
   fun:_Z20statistics_fini_passv
   obj:/usr/lib/gcc/x86_64-linux-gnu/11/cc1
   fun:_Z16execute_one_passP8opt_pass
   fun:_Z17execute_pass_listP8functionP8opt_pass
   fun:_ZN11cgraph_node6expandEv
   fun:_ZN12symbol_table7compileEv
   fun:_ZN12symbol_table25finalize_compilation_unitEv
   obj:/usr/lib/gcc/x86_64-linux-gnu/11/cc1
   fun:_ZN6toplev4mainEiPPc
   fun:main
}
{
   <insert_a_suppression_name_here>
   Memcheck:Leak
   match-leak-kinds: reachable
   fun:calloc
   obj:/usr/lib/gcc/x86_64-linux-gnu/11/cc1
   fun:_Z20statistics_fini_passv
   obj:/usr/lib/gcc/x86_64-linux-gnu/11/cc1
   fun:_Z16execute_one_passP8opt_pass
   obj:/usr/lib/gcc/x86_64-linux-gnu/11/cc1
   fun:_Z17execute_pass_listP8functionP8opt_pass
   fun:_ZN11cgraph_node6expandEv
   fun:_ZN12symbol_table7compileEv
   fun:_ZN12symbol_table25finalize_compilation_unitEv
   obj:/usr/lib/gcc/x86_64-linux-gnu/11/cc1
   fun:_ZN6toplev4mainEiPPc
}
{
   <insert_a_suppression_name_here>
   Memcheck:Leak
   match-leak-kinds: reachable
   fun:calloc
   fun:xcalloc
   fun:_cpp_find_file
   fun:_cpp_stack_include
   obj:/usr/lib/gcc/x86_64-linux-gnu/11/cc1
   fun:_cpp_handle_directive
   fun:_cpp_lex_token
   obj:/usr/lib/gcc/x86_64-linux-gnu/11/cc1
   fun:_Z16c_lex_with_flagsPP9tree_nodePjPhi
   obj:/usr/lib/gcc/x86_64-linux-gnu/11/cc1
   fun:_Z19c_parser_peek_tokenP8c_parser
   fun:_Z12c_parse_filev
}
{
   <insert_a_suppression_name_here>
   Memcheck:Leak
   match-leak-kinds: reachable
   fun:malloc
   fun:xmalloc
   obj:/usr/lib/gcc/x86_64-linux-gnu/11/cc1
   fun:_Z9ht_createj
   fun:_Z15init_stringpoolv
   fun:_ZN6toplev4mainEiPPc
   fun:main
}
{
   <insert_a_suppression_name_here>
   Memcheck:Leak
   match-leak-kinds: reachable
   fun:malloc
   fun:xmalloc
   obj:/usr/lib/gcc/x86_64-linux-gnu/11/cc1
   fun:_Z17cpp_create_reader6c_langP2htP9line_maps
   fun:_Z21c_common_init_optionsjP17cl_decoded_option
   fun:_ZN6toplev4mainEiPPc
   fun:main
}
{
   <insert_a_suppression_name_here>
   Memcheck:Leak
   match-leak-kinds: reachable
   fun:calloc
   fun:xcalloc
   obj:/usr/lib/gcc/x86_64-linux-gnu/11/cc1
   fun:htab_find_slot_with_hash
   fun:_Z22get_combined_adhoc_locP9line_mapsj12source_rangePv
   obj:/usr/lib/gcc/x86_64-linux-gnu/11/cc1
   obj:/usr/lib/gcc/x86_64-linux-gnu/11/cc1
   obj:/usr/lib/gcc/x86_64-linux-gnu/11/cc1
   obj:/usr/lib/gcc/x86_64-linux-gnu/11/cc1
   obj:/usr/lib/gcc/x86_64-linux-gnu/11/cc1
   obj:/usr/lib/gcc/x86_64-linux-gnu/11/cc1
   fun:_Z12c_parse_filev
}
{
   <insert_a_suppression_name_here>
   Memcheck:Leak
   match-leak-kinds: reachable
   fun:malloc
   fun:xmalloc
   fun:_cpp_init_files
   fun:_Z17cpp_create_reader6c_langP2htP9line_maps
   fun:_Z21c_common_init_optionsjP17cl_decoded_option
   fun:_ZN6toplev4mainEiPPc
   fun:main
}
{
   <insert_a_suppression_name_here>
   Memcheck:Leak
   match-leak-kinds: reachable
   fun:realloc
   fun:xrealloc
   fun:_Z18ggc_internal_allocmPFvPvEmm
   fun:_Z9make_node9tree_code
   obj:/usr/lib/gcc/x86_64-linux-gnu/11/cc1
   obj:/usr/lib/gcc/x86_64-linux-gnu/11/cc1
   fun:_Z27c_common_nodes_and_builtinsv
   fun:_Z22c_init_decl_processingv
   fun:_Z18c_objc_common_initv
   fun:_ZN6toplev4mainEiPPc
   fun:main
}
{
   <insert_a_suppression_name_here>
   Memcheck:Leak
   match-leak-kinds: reachable
   fun:realloc
   fun:xrealloc
   fun:_Z26register_scoped_attributesPK14attribute_specPKc
   fun:_Z15init_attributesv
   fun:_Z15decl_attributesPP9tree_nodeS0_iS0_
   obj:/usr/lib/gcc/x86_64-linux-gnu/11/cc1
   obj:/usr/lib/gcc/x86_64-linux-gnu/11/cc1
   fun:_Z27c_common_nodes_and_builtinsv
   fun:_Z22c_init_decl_processingv
   fun:_Z18c_objc_common_initv
   fun:_ZN6toplev4mainEiPPc
   fun:main
}
{
   <insert_a_suppression_name_here>
   Memcheck:Leak
   match-leak-kinds: reachable
   fun:malloc
   fun:xmalloc
   fun:_cpp_init_tokenrun
   fun:_Z17cpp_create_reader6c_langP2htP9line_maps
   fun:_Z21c_common_init_optionsjP17cl_decoded_option
   fun:_ZN6toplev4mainEiPPc
   fun:main
}
{
   <insert_a_suppression_name_here>
   Memcheck:Leak
   match-leak-kinds: reachable
   fun:malloc
   fun:_cpp_get_buff
   fun:_Z17cpp_create_reader6c_langP2htP9line_maps
   fun:_Z21c_common_init_optionsjP17cl_decoded_option
   fun:_ZN6toplev4mainEiPPc
   fun:main
}
{
   <insert_a_suppression_name_here>
   Memcheck:Leak
   match-leak-kinds: possible
   fun:malloc
   fun:_cpp_get_buff
   fun:_Z17cpp_create_reader6c_langP2htP9line_maps
   fun:_Z21c_common_init_optionsjP17cl_decoded_option
   fun:_ZN6toplev4mainEiPPc
   fun:main
}
{
   <insert_a_suppression_name_here>
   Memcheck:Leak
   match-leak-kinds: reachable
   fun:calloc
   fun:xcalloc
   fun:_ZN3gcc12pass_manager18register_pass_nameEP8opt_passPKc
   fun:_ZN3gcc12pass_manager22register_one_dump_fileEP8opt_pass
   fun:_ZN3gcc12pass_manager19register_dump_filesEP8opt_pass
   fun:_ZN3gcc12pass_managerC1EPNS_7contextE
   fun:_ZN6toplev4mainEiPPc
   fun:main
}
{
   <insert_a_suppression_name_here>
   Memcheck:Leak
   match-leak-kinds: reachable
   fun:malloc
   fun:xrealloc
   fun:_ZN3gcc12dump_manager13dump_registerEPKcS2_S2_9dump_kind13optgroup_flagb
   fun:_ZN3gcc12pass_manager22register_one_dump_fileEP8opt_pass
   fun:_ZN3gcc12pass_manager19register_dump_filesEP8opt_pass
   fun:_ZN3gcc12pass_managerC1EPNS_7contextE
   fun:_ZN6toplev4mainEiPPc
   fun:main
}
{
   <insert_a_suppression_name_here>
   Memcheck:Leak
   match-leak-kinds: reachable
   fun:malloc
   fun:xmalloc
   obj:/usr/lib/gcc/x86_64-linux-gnu/11/cc1
   fun:_ZN6toplev4mainEiPPc
   fun:main
}
{
   <insert_a_suppression_name_here>
   Memcheck:Leak
   match-leak-kinds: reachable
   fun:malloc
   fun:xmalloc
   obj:/usr/lib/gcc/x86_64-linux-gnu/11/cc1
   fun:_Z22c_init_decl_processingv
   fun:_Z18c_objc_common_initv
   fun:_ZN6toplev4mainEiPPc
   fun:main
}
{
   <insert_a_suppression_name_here>
   Memcheck:Leak
   match-leak-kinds: reachable
   fun:malloc
   fun:xmalloc
   obj:/usr/lib/gcc/x86_64-linux-gnu/11/cc1
   obj:/usr/lib/gcc/x86_64-linux-gnu/11/cc1
   fun:_ZN12symbol_table25finalize_compilation_unitEv
   obj:/usr/lib/gcc/x86_64-linux-gnu/11/cc1
   fun:_ZN6toplev4mainEiPPc
   fun:main
}
{
   <insert_a_suppression_name_here>
   Memcheck:Leak
   match-leak-kinds: reachable
   fun:malloc
   fun:xmalloc
   fun:_Z24calculate_dominance_info13cdi_direction
   fun:_Z16cleanup_tree_cfgj
   obj:/usr/lib/gcc/x86_64-linux-gnu/11/cc1
   fun:_Z16execute_one_passP8opt_pass
   fun:_Z17execute_pass_listP8functionP8opt_pass
   fun:_ZN11cgraph_node7analyzeEv
   obj:/usr/lib/gcc/x86_64-linux-gnu/11/cc1
   fun:_ZN12symbol_table25finalize_compilation_unitEv
   obj:/usr/lib/gcc/x86_64-linux-gnu/11/cc1
   fun:_ZN6toplev4mainEiPPc
}
{
   <insert_a_suppression_name_here>
   Memcheck:Leak
   match-leak-kinds: reachable
   fun:malloc
   fun:xmalloc
   obj:/usr/lib/gcc/x86_64-linux-gnu/11/cc1
   fun:_ZN19evrp_range_analyzerC1Eb
   obj:/usr/lib/gcc/x86_64-linux-gnu/11/cc1
   fun:_Z16execute_one_passP8opt_pass
   fun:_Z17execute_pass_listP8functionP8opt_pass
   fun:_ZN11cgraph_node7analyzeEv
   obj:/usr/lib/gcc/x86_64-linux-gnu/11/cc1
   fun:_ZN12symbol_table25finalize_compilation_unitEv
   obj:/usr/lib/gcc/x86_64-linux-gnu/11/cc1
   fun:_ZN6toplev4mainEiPPc
}
{
   <insert_a_suppression_name_here>
   Memcheck:Leak
   match-leak-kinds: reachable
   fun:malloc
   fun:xmalloc
   obj:/usr/lib/gcc/x86_64-linux-gnu/11/cc1
   obj:/usr/lib/gcc/x86_64-linux-gnu/11/cc1
   fun:_Z17coalesce_ssa_nameP8_var_map
   fun:_Z18rewrite_out_of_ssaP9ssaexpand
   obj:/usr/lib/gcc/x86_64-linux-gnu/11/cc1
   fun:_Z16execute_one_passP8opt_pass
   fun:_Z17execute_pass_listP8functionP8opt_pass
   fun:_ZN11cgraph_node6expandEv
   fun:_ZN12symbol_table7compileEv
   fun:_ZN12symbol_table25finalize_compilation_unitEv
}
{
   <insert_a_suppression_name_here>
   Memcheck:Leak
   match-leak-kinds: reachable
   fun:malloc
   fun:xmalloc
   obj:/usr/lib/gcc/x86_64-linux-gnu/11/cc1
   fun:_Z21calculate_live_rangesP8_var_mapb
   fun:_Z17coalesce_ssa_nameP8_var_map
   fun:_Z18rewrite_out_of_ssaP9ssaexpand
   obj:/usr/lib/gcc/x86_64-linux-gnu/11/cc1
   fun:_Z16execute_one_passP8opt_pass
   fun:_Z17execute_pass_listP8functionP8opt_pass
   fun:_ZN11cgraph_node6expandEv
   fun:_ZN12symbol_table7compileEv
   fun:_ZN12symbol_table25finalize_compilation_unitEv
}
{
   <insert_a_suppression_name_here>
   Memcheck:Leak
   match-leak-kinds: reachable
   fun:malloc
   fun:xmalloc
   obj:/usr/lib/gcc/x86_64-linux-gnu/11/cc1
   fun:_Z17coalesce_ssa_nameP8_var_map
   fun:_Z18rewrite_out_of_ssaP9ssaexpand
   obj:/usr/lib/gcc/x86_64-linux-gnu/11/cc1
   fun:_Z16execute_one_passP8opt_pass
   fun:_Z17execute_pass_listP8functionP8opt_pass
   fun:_ZN11cgraph_node6expandEv
   fun:_ZN12symbol_table7compileEv
   fun:_ZN12symbol_table25finalize_compilation_unitEv
   obj:/usr/lib/gcc/x86_64-linux-gnu/11/cc1
}
{
   <insert_a_suppression_name_here>
   Memcheck:Leak
   match-leak-kinds: reachable
   fun:malloc
   fun:xmalloc
   obj:/usr/lib/gcc/x86_64-linux-gnu/11/cc1
   obj:/usr/lib/gcc/x86_64-linux-gnu/11/cc1
   obj:/usr/lib/gcc/x86_64-linux-gnu/11/cc1
   obj:/usr/lib/gcc/x86_64-linux-gnu/11/cc1
   fun:_Z17df_bb_refs_recordib
   fun:_Z14df_scan_blocksv
   obj:/usr/lib/gcc/x86_64-linux-gnu/11/cc1
   fun:_Z16execute_one_passP8opt_pass
   fun:_Z17execute_pass_listP8functionP8opt_pass
   fun:_ZN11cgraph_node6expandEv
}
{
   <insert_a_suppression_name_here>
   Memcheck:Leak
   match-leak-kinds: reachable
   fun:malloc
   fun:xmalloc
   obj:/usr/lib/gcc/x86_64-linux-gnu/11/cc1
   obj:/usr/lib/gcc/x86_64-linux-gnu/11/cc1
   obj:/usr/lib/gcc/x86_64-linux-gnu/11/cc1
   fun:_Z17df_bb_refs_recordib
   fun:_Z14df_scan_blocksv
   obj:/usr/lib/gcc/x86_64-linux-gnu/11/cc1
   fun:_Z16execute_one_passP8opt_pass
   fun:_Z17execute_pass_listP8functionP8opt_pass
   fun:_ZN11cgraph_node6expandEv
   fun:_ZN12symbol_table7compileEv
}
{
   <insert_a_suppression_name_here>
   Memcheck:Leak
   match-leak-kinds: reachable
   fun:malloc
   fun:xmalloc
   obj:/usr/lib/gcc/x86_64-linux-gnu/11/cc1
   obj:/usr/lib/gcc/x86_64-linux-gnu/11/cc1
   fun:_Z16execute_one_passP8opt_pass
   fun:_Z17execute_pass_listP8functionP8opt_pass
   fun:_ZN11cgraph_node6expandEv
   fun:_ZN12symbol_table7compileEv
   fun:_ZN12symbol_table25finalize_compilation_unitEv
   obj:/usr/lib/gcc/x86_64-linux-gnu/11/cc1
   fun:_ZN6toplev4mainEiPPc
   fun:main
}
{
   <insert_a_suppression_name_here>
   Memcheck:Leak
   match-leak-kinds: reachable
   fun:malloc
   fun:xmalloc
   obj:/usr/lib/gcc/x86_64-linux-gnu/11/cc1
   obj:/usr/lib/gcc/x86_64-linux-gnu/11/cc1
   fun:_Z18df_analyze_problemP8dataflowP11bitmap_headPii
   obj:/usr/lib/gcc/x86_64-linux-gnu/11/cc1
   obj:/usr/lib/gcc/x86_64-linux-gnu/11/cc1
   fun:_Z16execute_one_passP8opt_pass
   fun:_Z17execute_pass_listP8functionP8opt_pass
   fun:_ZN11cgraph_node6expandEv
   fun:_ZN12symbol_table7compileEv
   fun:_ZN12symbol_table25finalize_compilation_unitEv
}
{
   <insert_a_suppression_name_here>
   Memcheck:Leak
   match-leak-kinds: reachable
   fun:malloc
   fun:xmalloc
   fun:_Z24calculate_dominance_info13cdi_direction
   fun:_Z15flow_loops_findP5loops
   fun:_Z19loop_optimizer_initj
   obj:/usr/lib/gcc/x86_64-linux-gnu/11/cc1
   fun:_Z16execute_one_passP8opt_pass
   fun:_Z17execute_pass_listP8functionP8opt_pass
   fun:_ZN11cgraph_node6expandEv
   fun:_ZN12symbol_table7compileEv
   fun:_ZN12symbol_table25finalize_compilation_unitEv
   obj:/usr/lib/gcc/x86_64-linux-gnu/11/cc1
}
{
   <insert_a_suppression_name_here>
   Memcheck:Leak
   match-leak-kinds: reachable
   fun:malloc
   fun:xmalloc
   fun:_Z15ira_create_prefP11ira_allocnoii
   obj:/usr/lib/gcc/x86_64-linux-gnu/11/cc1
   fun:_Z9ira_costsv
   fun:_Z9ira_buildv
   obj:/usr/lib/gcc/x86_64-linux-gnu/11/cc1
   fun:_Z16execute_one_passP8opt_pass
   fun:_Z17execute_pass_listP8functionP8opt_pass
   fun:_ZN11cgraph_node6expandEv
   fun:_ZN12symbol_table7compileEv
   fun:_ZN12symbol_table25finalize_compilation_unitEv
}
{
   <insert_a_suppression_name_here>
   Memcheck:Leak
   match-leak-kinds: reachable
   fun:malloc
   fun:xmalloc
   obj:/usr/lib/gcc/x86_64-linux-gnu/11/cc1
   obj:/usr/lib/gcc/x86_64-linux-gnu/11/cc1
   fun:_Z22ira_traverse_loop_treebP18ira_loop_tree_nodePFvS0_ES2_
   fun:_Z30ira_create_allocno_live_rangesv
   fun:_Z9ira_buildv
   obj:/usr/lib/gcc/x86_64-linux-gnu/11/cc1
   fun:_Z16execute_one_passP8opt_pass
   fun:_Z17execute_pass_listP8functionP8opt_pass
   fun:_ZN11cgraph_node6expandEv
   fun:_ZN12symbol_table7compileEv
}
{
   <insert_a_suppression_name_here>
   Memcheck:Leak
   match-leak-kinds: definite
   fun:calloc
   fun:xcalloc
   obj:/usr/bin/x86_64-linux-gnu-as
   fun:bfd_map_over_sections
   obj:/usr/bin/x86_64-linux-gnu-as
   fun:(below main)
}
{
   <insert_a_suppression_name_here>
   Memcheck:Leak
   match-leak-kinds: reachable
   fun:malloc
   fun:xmalloc
   fun:xstrdup
   obj:/usr/bin/x86_64-linux-gnu-as
   obj:/usr/bin/x86_64-linux-gnu-as
   fun:(below main)
}
{
   <insert_a_suppression_name_here>
   Memcheck:Leak
   match-leak-kinds: indirect
   fun:malloc
   fun:xmalloc
   obj:/usr/bin/x86_64-linux-gnu-as
   fun:bfd_map_over_sections
   obj:/usr/bin/x86_64-linux-gnu-as
   fun:(below main)
}
{
   <insert_a_suppression_name_here>
   Memcheck:Leak
   match-leak-kinds: definite
   fun:malloc
   fun:xmalloc
   obj:/usr/bin/x86_64-linux-gnu-as
   obj:/usr/bin/x86_64-linux-gnu-as
   obj:/usr/bin/x86_64-linux-gnu-as
   obj:/usr/bin/x86_64-linux-gnu-as
   obj:/usr/bin/x86_64-linux-gnu-as
   fun:(below main)
}
{
   <insert_a_suppression_name_here>
   Memcheck:Leak
   match-leak-kinds: reachable
   fun:calloc
   fun:xcalloc
   obj:/usr/bin/x86_64-linux-gnu-as
   obj:/usr/bin/x86_64-linux-gnu-as
   obj:/usr/bin/x86_64-linux-gnu-as
   obj:/usr/bin/x86_64-linux-gnu-as
   obj:/usr/bin/x86_64-linux-gnu-as
   fun:(below main)
}
{
   <insert_a_suppression_name_here>
   Memcheck:Leak
   match-leak-kinds: reachable
   fun:calloc
   fun:xcalloc
   obj:/usr/bin/x86_64-linux-gnu-as
   obj:/usr/bin/x86_64-linux-gnu-as
   obj:/usr/bin/x86_64-linux-gnu-as
   obj:/usr/bin/x86_64-linux-gnu-as
   obj:/usr/bin/x86_64-linux-gnu-as
   obj:/usr/bin/x86_64-linux-gnu-as
   fun:(below main)
}
{
   <insert_a_suppression_name_here>
   Memcheck:Leak
   match-leak-kinds: reachable
   fun:malloc
   fun:xmalloc
   obj:/usr/bin/x86_64-linux-gnu-as
   obj:/usr/bin/x86_64-linux-gnu-as
   obj:/usr/bin/x86_64-linux-gnu-as
   fun:(below main)
}
{
   <insert_a_suppression_name_here>
   Memcheck:Leak
   match-leak-kinds: definite
   fun:calloc
   fun:xcalloc
   obj:/usr/bin/x86_64-linux-gnu-as
   obj:/usr/bin/x86_64-linux-gnu-as
   obj:/usr/bin/x86_64-linux-gnu-as
   obj:/usr/bin/x86_64-linux-gnu-as
   fun:(below main)
}
{
   <insert_a_suppression_name_here>
   Memcheck:Leak
   match-leak-kinds: definite
   fun:calloc
   fun:xcalloc
   obj:/usr/bin/x86_64-linux-gnu-as
   obj:/usr/bin/x86_64-linux-gnu-as
   obj:/usr/bin/x86_64-linux-gnu-as
   obj:/usr/bin/x86_64-linux-gnu-as
   obj:/usr/bin/x86_64-linux-gnu-as
   obj:/usr/bin/x86_64-linux-gnu-as
   fun:(below main)
}
{
   <insert_a_suppression_name_here>
   Memcheck:Leak
   match-leak-kinds: definite
   fun:calloc
   fun:xcalloc
   obj:/usr/bin/x86_64-linux-gnu-as
   obj:/usr/bin/x86_64-linux-gnu-as
   obj:/usr/bin/x86_64-linux-gnu-as
   obj:/usr/bin/x86_64-linux-gnu-as
   obj:/usr/bin/x86_64-linux-gnu-as
   fun:(below main)
}
{
   <insert_a_suppression_name_here>
   Memcheck:Leak
   match-leak-kinds: reachable
   fun:malloc
   fun:xmalloc
   obj:/usr/bin/x86_64-linux-gnu-as
   obj:/usr/bin/x86_64-linux-gnu-as
   obj:/usr/bin/x86_64-linux-gnu-as
   obj:/usr/bin/x86_64-linux-gnu-as
   obj:/usr/bin/x86_64-linux-gnu-as
   obj:/usr/bin/x86_64-linux-gnu-as
   obj:/usr/bin/x86_64-linux-gnu-as
   fun:(below main)
}
{
   <insert_a_suppression_name_here>
   Memcheck:Leak
   match-leak-kinds: reachable
   fun:malloc
   fun:xmalloc
   obj:/usr/bin/x86_64-linux-gnu-as
   obj:/usr/bin/x86_64-linux-gnu-as
   obj:/usr/bin/x86_64-linux-gnu-as
   obj:/usr/bin/x86_64-linux-gnu-as
   obj:/usr/bin/x86_64-linux-gnu-as
   obj:/usr/bin/x86_64-linux-gnu-as
   fun:(below main)
}
{
   <insert_a_suppression_name_here>
   Memcheck:Leak
   match-leak-kinds: reachable
   fun:malloc
   fun:xmalloc
   fun:_obstack_newchunk
   obj:/usr/bin/x86_64-linux-gnu-as
   obj:/usr/bin/x86_64-linux-gnu-as
   obj:/usr/bin/x86_64-linux-gnu-as
   obj:/usr/bin/x86_64-linux-gnu-as
   obj:/usr/bin/x86_64-linux-gnu-as
   obj:/usr/bin/x86_64-linux-gnu-as
   fun:(below main)
}
{
   <insert_a_suppression_name_here>
   Memcheck:Leak
   match-leak-kinds: reachable
   fun:malloc
   fun:xmalloc
   fun:xstrdup
   obj:/usr/bin/x86_64-linux-gnu-ld.bfd
   obj:/usr/bin/x86_64-linux-gnu-ld.bfd
   fun:(below main)
}
{
   <insert_a_suppression_name_here>
   Memcheck:Leak
   match-leak-kinds: reachable
   fun:malloc
   fun:xmalloc
   fun:xstrdup
   obj:/usr/bin/x86_64-linux-gnu-ld.bfd
   obj:/usr/bin/x86_64-linux-gnu-ld.bfd
   obj:/usr/bin/x86_64-linux-gnu-ld.bfd
   fun:(below main)
}
{
   <insert_a_suppression_name_here>
   Memcheck:Leak
   match-leak-kinds: reachable
   fun:malloc
   fun:xmalloc
   fun:xstrdup
   obj:/usr/bin/x86_64-linux-gnu-ld.bfd
   obj:/usr/bin/x86_64-linux-gnu-ld.bfd
   obj:/usr/bin/x86_64-linux-gnu-ld.bfd
   obj:/usr/bin/x86_64-linux-gnu-ld.bfd
   fun:(below main)
}
{
   <insert_a_suppression_name_here>
   Memcheck:Leak
   match-leak-kinds: definite
   fun:malloc
   fun:xmalloc
   fun:xstrdup
   obj:/usr/bin/x86_64-linux-gnu-ld.bfd
   obj:/usr/bin/x86_64-linux-gnu-ld.bfd
   obj:/usr/bin/x86_64-linux-gnu-ld.bfd
   obj:/usr/bin/x86_64-linux-gnu-ld.bfd
   obj:/usr/bin/x86_64-linux-gnu-ld.bfd
   obj:/usr/bin/x86_64-linux-gnu-ld.bfd
   fun:(below main)
}
{
   <insert_a_suppression_name_here>
   Memcheck:Leak
   match-leak-kinds: reachable
   fun:malloc
   fun:xmalloc
   fun:concat
   obj:/usr/bin/x86_64-linux-gnu-ld.bfd
   obj:/usr/bin/x86_64-linux-gnu-ld.bfd
   obj:/usr/bin/x86_64-linux-gnu-ld.bfd
   obj:/usr/bin/x86_64-linux-gnu-ld.bfd
   obj:/usr/bin/x86_64-linux-gnu-ld.bfd
   obj:/usr/bin/x86_64-linux-gnu-ld.bfd
   fun:(below main)
}
{
   <insert_a_suppression_name_here>
   Memcheck:Leak
   match-leak-kinds: reachable
   fun:malloc
   fun:xmalloc
   obj:/usr/bin/x86_64-linux-gnu-ld.bfd
   obj:/usr/bin/x86_64-linux-gnu-ld.bfd
   fun:(below main)
}
{
   <insert_a_suppression_name_here>
   Memcheck:Leak
   match-leak-kinds: reachable
   fun:malloc
   fun:xmalloc
   obj:/usr/bin/x86_64-linux-gnu-ld.bfd
   obj:/usr/bin/x86_64-linux-gnu-ld.bfd
   obj:/usr/bin/x86_64-linux-gnu-ld.bfd
   obj:/usr/bin/x86_64-linux-gnu-ld.bfd
   obj:/usr/bin/x86_64-linux-gnu-ld.bfd
   fun:(below main)
}
{
   <insert_a_suppression_name_here>
   Memcheck:Leak
   match-leak-kinds: definite
   fun:malloc
   fun:_bfd_elf_strtab_save
   fun:bfd_elf_link_add_symbols
   obj:/usr/bin/x86_64-linux-gnu-ld.bfd
   obj:/usr/bin/x86_64-linux-gnu-ld.bfd
   obj:/usr/bin/x86_64-linux-gnu-ld.bfd
   obj:/usr/bin/x86_64-linux-gnu-ld.bfd
   obj:/usr/bin/x86_64-linux-gnu-ld.bfd
   fun:(below main)
}
{
   <insert_a_suppression_name_here>
   Memcheck:Leak
   match-leak-kinds: definite
   fun:malloc
   fun:xmalloc
   obj:*
   obj:/usr/bin/x86_64-linux-gnu-ld.bfd
   fun:(below main)
}
{
   <insert_a_suppression_name_here>
   Memcheck:Leak
   match-leak-kinds: reachable
   fun:malloc
   fun:objalloc_create
   fun:bfd_hash_table_init_n
   fun:bfd_check_format_matches
   obj:/usr/bin/x86_64-linux-gnu-ld.bfd
   obj:/usr/bin/x86_64-linux-gnu-ld.bfd
   obj:/usr/bin/x86_64-linux-gnu-ld.bfd
   obj:/usr/bin/x86_64-linux-gnu-ld.bfd
   obj:/usr/bin/x86_64-linux-gnu-ld.bfd
   obj:/usr/bin/x86_64-linux-gnu-ld.bfd
   obj:/usr/bin/x86_64-linux-gnu-ld.bfd
   obj:/usr/bin/x86_64-linux-gnu-ld.bfd
}
{
   <insert_a_suppression_name_here>
   Memcheck:Leak
   match-leak-kinds: reachable
   fun:malloc
   fun:objalloc_create
   obj:/usr/lib/x86_64-linux-gnu/libbfd-2.38-system.so
   obj:/usr/lib/x86_64-linux-gnu/libbfd-2.38-system.so
   obj:/usr/bin/x86_64-linux-gnu-ld.bfd
   obj:/usr/bin/x86_64-linux-gnu-ld.bfd
   obj:/usr/bin/x86_64-linux-gnu-ld.bfd
   obj:/usr/bin/x86_64-linux-gnu-ld.bfd
   obj:/usr/bin/x86_64-linux-gnu-ld.bfd
   obj:/usr/bin/x86_64-linux-gnu-ld.bfd
   obj:/usr/bin/x86_64-linux-gnu-ld.bfd
   obj:/usr/bin/x86_64-linux-gnu-ld.bfd
}
{
   <insert_a_suppression_name_here>
   Memcheck:Leak
   match-leak-kinds: reachable
   fun:malloc
   fun:objalloc_create
   obj:/usr/lib/x86_64-linux-gnu/libbfd-2.38-system.so
   fun:bfd_fopen
   obj:/usr/bin/x86_64-linux-gnu-ld.bfd
   obj:/usr/bin/x86_64-linux-gnu-ld.bfd
   obj:/usr/bin/x86_64-linux-gnu-ld.bfd
   obj:/usr/bin/x86_64-linux-gnu-ld.bfd
   fun:(below main)
}
{
   <insert_a_suppression_name_here>
   Memcheck:Leak
   match-leak-kinds: reachable
   fun:malloc
   fun:objalloc_create
   fun:bfd_hash_table_init_n
   fun:bfd_check_format_matches
   obj:/usr/bin/x86_64-linux-gnu-ld.bfd
   obj:/usr/bin/x86_64-linux-gnu-ld.bfd
   obj:/usr/bin/x86_64-linux-gnu-ld.bfd
   obj:/usr/bin/x86_64-linux-gnu-ld.bfd
   fun:(below main)
}
{
   <insert_a_suppression_name_here>
   Memcheck:Leak
   match-leak-kinds: reachable
   fun:malloc
   fun:xmalloc
   fun:xstrdup
   obj:/usr/bin/x86_64-linux-gnu-ld.bfd
   obj:/usr/bin/x86_64-linux-gnu-ld.bfd
   obj:/usr/bin/x86_64-linux-gnu-ld.bfd
   obj:/usr/bin/x86_64-linux-gnu-ld.bfd
   obj:/usr/bin/x86_64-linux-gnu-ld.bfd
   fun:(below main)
}
{
   <insert_a_suppression_name_here>
   Memcheck:Leak
   match-leak-kinds: reachable
   fun:malloc
   fun:xmalloc
   obj:/usr/bin/x86_64-linux-gnu-ld.bfd
   obj:/usr/bin/x86_64-linux-gnu-ld.bfd
   obj:/usr/bin/x86_64-linux-gnu-ld.bfd
   obj:/usr/bin/x86_64-linux-gnu-ld.bfd
   obj:/usr/bin/x86_64-linux-gnu-ld.bfd
   obj:/usr/bin/x86_64-linux-gnu-ld.bfd
   obj:/usr/bin/x86_64-linux-gnu-ld.bfd
   obj:/usr/bin/x86_64-linux-gnu-ld.bfd
   fun:(below main)
}
{
   <insert_a_suppression_name_here>
   Memcheck:Leak
   match-leak-kinds: reachable
   fun:malloc
   fun:xmalloc
   obj:/usr/bin/x86_64-linux-gnu-ld.bfd
   obj:/usr/bin/x86_64-linux-gnu-ld.bfd
   obj:/usr/bin/x86_64-linux-gnu-ld.bfd
   obj:/usr/bin/x86_64-linux-gnu-ld.bfd
   obj:/usr/bin/x86_64-linux-gnu-ld.bfd
   obj:/usr/bin/x86_64-linux-gnu-ld.bfd
   obj:/usr/bin/x86_64-linux-gnu-ld.bfd
   obj:/usr/bin/x86_64-linux-gnu-ld.bfd
   obj:/usr/bin/x86_64-linux-gnu-ld.bfd
   fun:(below main)
}
{
   <insert_a_suppression_name_here>
   Memcheck:Leak
   match-leak-kinds: reachable
   fun:malloc
   fun:xmalloc
   fun:concat
   obj:/usr/bin/x86_64-linux-gnu-ld.bfd
   obj:/usr/bin/x86_64-linux-gnu-ld.bfd
   obj:/usr/bin/x86_64-linux-gnu-ld.bfd
   fun:(below main)
}
{
   <insert_a_suppression_name_here>
   Memcheck:Leak
   match-leak-kinds: reachable
   fun:malloc
   fun:xmalloc
   obj:/usr/bin/x86_64-linux-gnu-ld.bfd
   fun:_bfd_elf_write_object_contents
   fun:bfd_close
   obj:/usr/bin/x86_64-linux-gnu-ld.bfd
   fun:(below main)
}
{
   <insert_a_suppression_name_here>
   Memcheck:Leak
   match-leak-kinds: reachable
   fun:malloc
   fun:objalloc_create
   obj:/usr/lib/x86_64-linux-gnu/libbfd-2.38-system.so
   fun:bfd_fopen
   obj:/usr/bin/x86_64-linux-gnu-ld.bfd
   obj:/usr/bin/x86_64-linux-gnu-ld.bfd
   obj:/usr/bin/x86_64-linux-gnu-ld.bfd
   obj:/usr/bin/x86_64-linux-gnu-ld.bfd
   obj:/usr/bin/x86_64-linux-gnu-ld.bfd
   obj:/usr/bin/x86_64-linux-gnu-ld.bfd
   obj:/usr/bin/x86_64-linux-gnu-ld.bfd
   fun:(below main)
}
{
   <insert_a_suppression_name_here>
   Memcheck:Leak
   match-leak-kinds: reachable
   fun:malloc
   fun:objalloc_create
   fun:bfd_hash_table_init_n
   fun:bfd_check_format_matches
   obj:/usr/bin/x86_64-linux-gnu-ld.bfd
   obj:/usr/bin/x86_64-linux-gnu-ld.bfd
   obj:/usr/bin/x86_64-linux-gnu-ld.bfd
   obj:/usr/bin/x86_64-linux-gnu-ld.bfd
   obj:/usr/bin/x86_64-linux-gnu-ld.bfd
   obj:/usr/bin/x86_64-linux-gnu-ld.bfd
   obj:/usr/bin/x86_64-linux-gnu-ld.bfd
   fun:(below main)
}
{
   <insert_a_suppression_name_here>
   Memcheck:Leak
   match-leak-kinds: reachable
   fun:malloc
   fun:objalloc_create
   obj:/usr/lib/x86_64-linux-gnu/libbfd-2.38-system.so
   obj:/usr/lib/x86_64-linux-gnu/libbfd-2.38-system.so
   obj:/usr/bin/x86_64-linux-gnu-ld.bfd
   obj:/usr/bin/x86_64-linux-gnu-ld.bfd
   obj:/usr/bin/x86_64-linux-gnu-ld.bfd
   obj:/usr/bin/x86_64-linux-gnu-ld.bfd
   obj:/usr/bin/x86_64-linux-gnu-ld.bfd
   obj:/usr/bin/x86_64-linux-gnu-ld.bfd
   obj:/usr/bin/x86_64-linux-gnu-ld.bfd
   fun:(below main)
}
{
   <insert_a_suppression_name_here>
   Memcheck:Leak
   match-leak-kinds: reachable
   fun:malloc
   fun:objalloc_create
   obj:/usr/lib/x86_64-linux-gnu/libbfd-2.38-system.so
   fun:bfd_fopen
   obj:/usr/bin/x86_64-linux-gnu-ld.bfd
   obj:/usr/bin/x86_64-linux-gnu-ld.bfd
   obj:/usr/bin/x86_64-linux-gnu-ld.bfd
   obj:/usr/bin/x86_64-linux-gnu-ld.bfd
   obj:/usr/bin/x86_64-linux-gnu-ld.bfd
   obj:/usr/bin/x86_64-linux-gnu-ld.bfd
   obj:/usr/bin/x86_64-linux-gnu-ld.bfd
   obj:/usr/bin/x86_64-linux-gnu-ld.bfd
}
{
   <insert_a_suppression_name_here>
   Memcheck:Leak
   match-leak-kinds: reachable
   fun:malloc
   fun:xmalloc
   obj:/usr/bin/x86_64-linux-gnu-ld.bfd
   obj:/usr/bin/x86_64-linux-gnu-ld.bfd
   obj:/usr/bin/x86_64-linux-gnu-ld.bfd
   obj:/usr/bin/x86_64-linux-gnu-ld.bfd
   obj:/usr/bin/x86_64-linux-gnu-ld.bfd
   obj:/usr/bin/x86_64-linux-gnu-ld.bfd
   obj:/usr/bin/x86_64-linux-gnu-ld.bfd
   obj:/usr/bin/x86_64-linux-gnu-ld.bfd
   obj:/usr/bin/x86_64-linux-gnu-ld.bfd
   obj:/usr/bin/x86_64-linux-gnu-ld.bfd
}
{
   <insert_a_suppression_name_here>
   Memcheck:Leak
   match-leak-kinds: reachable
   fun:malloc
   fun:xmalloc
   obj:/usr/bin/x86_64-linux-gnu-ld.bfd
   obj:/usr/bin/x86_64-linux-gnu-ld.bfd
   obj:/usr/bin/x86_64-linux-gnu-ld.bfd
   obj:/usr/bin/x86_64-linux-gnu-ld.bfd
   obj:/usr/bin/x86_64-linux-gnu-ld.bfd
   obj:/usr/bin/x86_64-linux-gnu-ld.bfd
   fun:(below main)
}
{
   <insert_a_suppression_name_here>
   Memcheck:Leak
   match-leak-kinds: reachable
   fun:malloc
   obj:/usr/bin/x86_64-linux-gnu-ld.bfd
   obj:/usr/bin/x86_64-linux-gnu-ld.bfd
   obj:/usr/bin/x86_64-linux-gnu-ld.bfd
   obj:/usr/bin/x86_64-linux-gnu-ld.bfd
   obj:/usr/bin/x86_64-linux-gnu-ld.bfd
   obj:/usr/bin/x86_64-linux-gnu-ld.bfd
   obj:/usr/bin/x86_64-linux-gnu-ld.bfd
   obj:/usr/bin/x86_64-linux-gnu-ld.bfd
   obj:/usr/bin/x86_64-linux-gnu-ld.bfd
   obj:/usr/bin/x86_64-linux-gnu-ld.bfd
   fun:(below main)
}
{
   <insert_a_suppression_name_here>
   Memcheck:Leak
   match-leak-kinds: reachable
   fun:malloc
   obj:/usr/bin/x86_64-linux-gnu-ld.bfd
   obj:/usr/bin/x86_64-linux-gnu-ld.bfd
   obj:/usr/bin/x86_64-linux-gnu-ld.bfd
   obj:/usr/bin/x86_64-linux-gnu-ld.bfd
   obj:/usr/bin/x86_64-linux-gnu-ld.bfd
   obj:/usr/bin/x86_64-linux-gnu-ld.bfd
   fun:(below main)
}
{
   <insert_a_suppression_name_here>
   Memcheck:Leak
   match-leak-kinds: reachable
   fun:malloc
   fun:xmalloc
   obj:/usr/bin/x86_64-linux-gnu-ld.bfd
   obj:/usr/bin/x86_64-linux-gnu-ld.bfd
   obj:/usr/bin/x86_64-linux-gnu-ld.bfd
   fun:(below main)
}
{
   <insert_a_suppression_name_here>
   Memcheck:Leak
   match-leak-kinds: reachable
   fun:realloc
   obj:/usr/bin/x86_64-linux-gnu-ld.bfd
   obj:/usr/bin/x86_64-linux-gnu-ld.bfd
   obj:/usr/bin/x86_64-linux-gnu-ld.bfd
   obj:/usr/bin/x86_64-linux-gnu-ld.bfd
   obj:/usr/bin/x86_64-linux-gnu-ld.bfd
   obj:/usr/bin/x86_64-linux-gnu-ld.bfd
   obj:/usr/bin/x86_64-linux-gnu-ld.bfd
   obj:/usr/bin/x86_64-linux-gnu-ld.bfd
   obj:/usr/bin/x86_64-linux-gnu-ld.bfd
   obj:/usr/bin/x86_64-linux-gnu-ld.bfd
   obj:/usr/bin/x86_64-linux-gnu-ld.bfd
}
{
   <insert_a_suppression_name_here>
   Memcheck:Leak
   match-leak-kinds: indirect
   fun:malloc
   fun:xmalloc
   fun:xstrdup
   obj:*
   obj:/usr/bin/x86_64-linux-gnu-ld.bfd
   fun:(below main)
}
{
   <insert_a_suppression_name_here>
   Memcheck:Leak
   match-leak-kinds: reachable
   fun:malloc
   fun:xmalloc
   fun:xstrdup
   obj:/usr/bin/x86_64-linux-gnu-ld.bfd
   obj:/usr/bin/x86_64-linux-gnu-ld.bfd
   obj:/usr/bin/x86_64-linux-gnu-ld.bfd
   obj:/usr/bin/x86_64-linux-gnu-ld.bfd
   obj:/usr/bin/x86_64-linux-gnu-ld.bfd
   obj:/usr/bin/x86_64-linux-gnu-ld.bfd
   obj:/usr/bin/x86_64-linux-gnu-ld.bfd
   obj:/usr/bin/x86_64-linux-gnu-ld.bfd
   fun:(below main)
}
{
   <insert_a_suppression_name_here>
   Memcheck:Leak
   match-leak-kinds: reachable
   fun:malloc
   fun:xmalloc
   fun:concat
   obj:/usr/bin/x86_64-linux-gnu-ld.bfd
   obj:/usr/bin/x86_64-linux-gnu-ld.bfd
   obj:/usr/bin/x86_64-linux-gnu-ld.bfd
   obj:/usr/bin/x86_64-linux-gnu-ld.bfd
   obj:/usr/bin/x86_64-linux-gnu-ld.bfd
   obj:/usr/bin/x86_64-linux-gnu-ld.bfd
   obj:/usr/bin/x86_64-linux-gnu-ld.bfd
   fun:(below main)
}
{
   <insert_a_suppression_name_here>
   Memcheck:Leak
   match-leak-kinds: reachable
   fun:malloc
   fun:xmalloc
   fun:xstrdup
   obj:/usr/bin/x86_64-linux-gnu-ld.bfd
   obj:/usr/bin/x86_64-linux-gnu-ld.bfd
   obj:/usr/bin/x86_64-linux-gnu-ld.bfd
   obj:/usr/bin/x86_64-linux-gnu-ld.bfd
   obj:/usr/bin/x86_64-linux-gnu-ld.bfd
   obj:/usr/bin/x86_64-linux-gnu-ld.bfd
   obj:/usr/bin/x86_64-linux-gnu-ld.bfd
   obj:/usr/bin/x86_64-linux-gnu-ld.bfd
   obj:/usr/bin/x86_64-linux-gnu-ld.bfd
}
{
   <insert_a_suppression_name_here>
   Memcheck:Leak
   match-leak-kinds: reachable
   fun:malloc
   fun:strdup
   obj:/usr/bin/x86_64-linux-gnu-ld.bfd
   obj:/usr/bin/x86_64-linux-gnu-ld.bfd
   obj:/usr/bin/x86_64-linux-gnu-ld.bfd
   obj:/usr/bin/x86_64-linux-gnu-ld.bfd
   obj:/usr/bin/x86_64-linux-gnu-ld.bfd
   obj:/usr/bin/x86_64-linux-gnu-ld.bfd
   fun:(below main)
}
{
   <insert_a_suppression_name_here>
   Memcheck:Leak
   match-leak-kinds: definite
   fun:realloc
   fun:xrealloc
   obj:*
   obj:/usr/bin/x86_64-linux-gnu-ld.bfd
   fun:(below main)
}
{
   <insert_a_suppression_name_here>
   Memcheck:Leak
   match-leak-kinds: reachable
   fun:malloc
   fun:xmalloc
   obj:/usr/bin/x86_64-linux-gnu-ld.bfd
   obj:/usr/bin/x86_64-linux-gnu-ld.bfd
   obj:/usr/bin/x86_64-linux-gnu-ld.bfd
   obj:/usr/bin/x86_64-linux-gnu-ld.bfd
   obj:/usr/bin/x86_64-linux-gnu-ld.bfd
   obj:/usr/bin/x86_64-linux-gnu-ld.bfd
   obj:/usr/bin/x86_64-linux-gnu-ld.bfd
   fun:(below main)
}
{
   <insert_a_suppression_name_here>
   Memcheck:Leak
   match-leak-kinds: definite
   fun:malloc
   fun:xmalloc
   fun:concat
   obj:/usr/bin/x86_64-linux-gnu-ld.bfd
   obj:/usr/bin/x86_64-linux-gnu-ld.bfd
   obj:/usr/bin/x86_64-linux-gnu-ld.bfd
   obj:/usr/bin/x86_64-linux-gnu-ld.bfd
   obj:/usr/bin/x86_64-linux-gnu-ld.bfd
   obj:/usr/bin/x86_64-linux-gnu-ld.bfd
   obj:/usr/bin/x86_64-linux-gnu-ld.bfd
   obj:/usr/bin/x86_64-linux-gnu-ld.bfd
   obj:/usr/bin/x86_64-linux-gnu-ld.bfd
}
{
   <insert_a_suppression_name_here>
   Memcheck:Leak
   match-leak-kinds: reachable
   fun:calloc
   fun:htab_create_typed_alloc
   fun:htab_create_alloc
   obj:/usr/lib/x86_64-linux-gnu/libbfd-2.38-system.so
   obj:/usr/bin/x86_64-linux-gnu-ld.bfd
   obj:/usr/bin/x86_64-linux-gnu-ld.bfd
   obj:/usr/bin/x86_64-linux-gnu-ld.bfd
   obj:/usr/bin/x86_64-linux-gnu-ld.bfd
   obj:/usr/bin/x86_64-linux-gnu-ld.bfd
   obj:/usr/bin/x86_64-linux-gnu-ld.bfd
   obj:/usr/bin/x86_64-linux-gnu-ld.bfd
   obj:/usr/bin/x86_64-linux-gnu-ld.bfd
}
{
   <insert_a_suppression_name_here>
   Memcheck:Leak
   match-leak-kinds: reachable
   fun:malloc
   obj:/usr/lib/x86_64-linux-gnu/libbfd-2.38-system.so
   obj:/usr/lib/x86_64-linux-gnu/libbfd-2.38-system.so
   obj:/usr/bin/x86_64-linux-gnu-ld.bfd
   obj:/usr/bin/x86_64-linux-gnu-ld.bfd
   obj:/usr/bin/x86_64-linux-gnu-ld.bfd
   obj:/usr/bin/x86_64-linux-gnu-ld.bfd
   obj:/usr/bin/x86_64-linux-gnu-ld.bfd
   obj:/usr/bin/x86_64-linux-gnu-ld.bfd
   obj:/usr/bin/x86_64-linux-gnu-ld.bfd
   obj:/usr/bin/x86_64-linux-gnu-ld.bfd
   fun:(below main)
}
{
   <insert_a_suppression_name_here>
   Memcheck:Leak
   match-leak-kinds: reachable
   fun:malloc
   fun:xmalloc
   fun:xstrdup
   obj:/usr/bin/x86_64-linux-gnu-ld.bfd
   obj:/usr/bin/x86_64-linux-gnu-ld.bfd
   obj:/usr/bin/x86_64-linux-gnu-ld.bfd
   obj:/usr/bin/x86_64-linux-gnu-ld.bfd
   obj:/usr/bin/x86_64-linux-gnu-ld.bfd
   obj:/usr/bin/x86_64-linux-gnu-ld.bfd
   fun:(below main)
}
{
   <insert_a_suppression_name_here>
   Memcheck:Leak
   match-leak-kinds: reachable
   fun:malloc
   fun:objalloc_create
   obj:/usr/lib/x86_64-linux-gnu/libbfd-2.38-system.so
   fun:bfd_fopen
   obj:/usr/bin/x86_64-linux-gnu-ld.bfd
   obj:/usr/bin/x86_64-linux-gnu-ld.bfd
   obj:/usr/bin/x86_64-linux-gnu-ld.bfd
   obj:/usr/bin/x86_64-linux-gnu-ld.bfd
   obj:/usr/bin/x86_64-linux-gnu-ld.bfd
   obj:/usr/bin/x86_64-linux-gnu-ld.bfd
   fun:(below main)
}
{
   <insert_a_suppression_name_here>
   Memcheck:Leak
   match-leak-kinds: reachable
   fun:malloc
   fun:objalloc_create
   fun:bfd_hash_table_init_n
   fun:bfd_check_format_matches
   obj:/usr/bin/x86_64-linux-gnu-ld.bfd
   obj:/usr/bin/x86_64-linux-gnu-ld.bfd
   obj:/usr/bin/x86_64-linux-gnu-ld.bfd
   obj:/usr/bin/x86_64-linux-gnu-ld.bfd
   obj:/usr/bin/x86_64-linux-gnu-ld.bfd
   obj:/usr/bin/x86_64-linux-gnu-ld.bfd
   fun:(below main)
}
{
   <insert_a_suppression_name_here>
   Memcheck:Leak
   match-leak-kinds: definite
   fun:malloc
   fun:xmalloc
   fun:concat
   obj:/usr/bin/x86_64-linux-gnu-ld.bfd
   fun:bfd_check_format_matches
   obj:/usr/bin/x86_64-linux-gnu-ld.bfd
   obj:/usr/bin/x86_64-linux-gnu-ld.bfd
   obj:/usr/bin/x86_64-linux-gnu-ld.bfd
   obj:/usr/bin/x86_64-linux-gnu-ld.bfd
   obj:/usr/bin/x86_64-linux-gnu-ld.bfd
   obj:/usr/bin/x86_64-linux-gnu-ld.bfd
   obj:/usr/bin/x86_64-linux-gnu-ld.bfd
}
{
   <insert_a_suppression_name_here>
   Memcheck:Leak
   match-leak-kinds: reachable
   fun:calloc
   fun:htab_create_typed_alloc
   fun:htab_create_alloc
   obj:/usr/lib/x86_64-linux-gnu/libbfd-2.38-system.so
   obj:/usr/bin/x86_64-linux-gnu-ld.bfd
   obj:/usr/bin/x86_64-linux-gnu-ld.bfd
   obj:/usr/bin/x86_64-linux-gnu-ld.bfd
   obj:/usr/bin/x86_64-linux-gnu-ld.bfd
   obj:/usr/bin/x86_64-linux-gnu-ld.bfd
   obj:/usr/bin/x86_64-linux-gnu-ld.bfd
   obj:/usr/bin/x86_64-linux-gnu-ld.bfd
   fun:(below main)
}
{
   <insert_a_suppression_name_here>
   Memcheck:Leak
   match-leak-kinds: definite
   fun:malloc
   fun:xmalloc
   fun:xstrdup
   obj:/usr/bin/x86_64-linux-gnu-ld.bfd
   obj:/usr/bin/x86_64-linux-gnu-ld.bfd
   obj:/usr/bin/x86_64-linux-gnu-ld.bfd
   fun:(below main)
}
{
   <insert_a_suppression_name_here>
   Memcheck:Leak
   match-leak-kinds: reachable
   fun:malloc
   obj:/usr/lib/x86_64-linux-gnu/libbfd-2.38-system.so
   obj:/usr/lib/x86_64-linux-gnu/libbfd-2.38-system.so
   obj:/usr/bin/x86_64-linux-gnu-ld.bfd
   obj:/usr/bin/x86_64-linux-gnu-ld.bfd
   obj:/usr/bin/x86_64-linux-gnu-ld.bfd
   obj:/usr/bin/x86_64-linux-gnu-ld.bfd
   obj:/usr/bin/x86_64-linux-gnu-ld.bfd
   obj:/usr/bin/x86_64-linux-gnu-ld.bfd
   obj:/usr/bin/x86_64-linux-gnu-ld.bfd
   fun:(below main)
}
{
   <insert_a_suppression_name_here>
   Memcheck:Leak
   match-leak-kinds: definite
   fun:malloc
   fun:xmalloc
   obj:/usr/bin/x86_64-linux-gnu-ld.bfd
   obj:/usr/bin/x86_64-linux-gnu-ld.bfd
   obj:/usr/bin/x86_64-linux-gnu-ld.bfd
   fun:(below main)
}
{
   <insert_a_suppression_name_here>
   Memcheck:Leak
   match-leak-kinds: reachable
   fun:malloc
   fun:xmalloc
   fun:xstrdup
   obj:/usr/bin/x86_64-linux-gnu-ld.bfd
   obj:/usr/bin/x86_64-linux-gnu-ld.bfd
   obj:/usr/bin/x86_64-linux-gnu-ld.bfd
   obj:/usr/bin/x86_64-linux-gnu-ld.bfd
   obj:/usr/bin/x86_64-linux-gnu-ld.bfd
   obj:/usr/bin/x86_64-linux-gnu-ld.bfd
   obj:/usr/bin/x86_64-linux-gnu-ld.bfd
   fun:(below main)
}
{
   <insert_a_suppression_name_here>
   Memcheck:Leak
   match-leak-kinds: reachable
   fun:calloc
   obj:/usr/lib/x86_64-linux-gnu/libbfd-2.38-system.so
   obj:/usr/lib/x86_64-linux-gnu/libbfd-2.38-system.so
   obj:/usr/bin/x86_64-linux-gnu-ld.bfd
   obj:/usr/bin/x86_64-linux-gnu-ld.bfd
   obj:/usr/bin/x86_64-linux-gnu-ld.bfd
   obj:/usr/bin/x86_64-linux-gnu-ld.bfd
   obj:/usr/bin/x86_64-linux-gnu-ld.bfd
   obj:/usr/bin/x86_64-linux-gnu-ld.bfd
   obj:/usr/bin/x86_64-linux-gnu-ld.bfd
   obj:/usr/bin/x86_64-linux-gnu-ld.bfd
   fun:(below main)
}
{
   <insert_a_suppression_name_here>
   Memcheck:Leak
   match-leak-kinds: reachable
   fun:calloc
   obj:/usr/lib/x86_64-linux-gnu/libbfd-2.38-system.so
   fun:bfd_fopen
   obj:/usr/bin/x86_64-linux-gnu-ld.bfd
   obj:/usr/bin/x86_64-linux-gnu-ld.bfd
   obj:/usr/bin/x86_64-linux-gnu-ld.bfd
   obj:/usr/bin/x86_64-linux-gnu-ld.bfd
   fun:(below main)
}
{
   <insert_a_suppression_name_here>
   Memcheck:Leak
   match-leak-kinds: reachable
   fun:malloc
   fun:bfd_elf_get_elf_syms
   obj:/usr/lib/x86_64-linux-gnu/libbfd-2.38-system.so
   obj:/usr/lib/x86_64-linux-gnu/libbfd-2.38-system.so
   fun:bfd_elf_discard_info
   obj:/usr/bin/x86_64-linux-gnu-ld.bfd
   obj:/usr/bin/x86_64-linux-gnu-ld.bfd
   obj:/usr/bin/x86_64-linux-gnu-ld.bfd
   fun:(below main)
}
{
   <insert_a_suppression_name_here>
   Memcheck:Leak
   match-leak-kinds: definite
   fun:malloc
   fun:xmalloc
   obj:/usr/bin/x86_64-linux-gnu-ld.bfd
   fun:(below main)
}
{
   <insert_a_suppression_name_here>
   Memcheck:Leak
   match-leak-kinds: reachable
   fun:malloc
   fun:bfd_get_full_section_contents
   obj:/usr/lib/x86_64-linux-gnu/libbfd-2.38-system.so
   fun:_bfd_elf_link_iterate_on_relocs
   obj:/usr/lib/x86_64-linux-gnu/libbfd-2.38-system.so
   fun:bfd_elf_size_dynamic_sections
   obj:/usr/bin/x86_64-linux-gnu-ld.bfd
   obj:/usr/bin/x86_64-linux-gnu-ld.bfd
   obj:/usr/bin/x86_64-linux-gnu-ld.bfd
   fun:(below main)
}
{
   <insert_a_suppression_name_here>
   Memcheck:Leak
   match-leak-kinds: definite
   fun:malloc
   fun:xmalloc
   fun:concat
   obj:/usr/bin/x86_64-linux-gnu-ld.bfd
   obj:/usr/bin/x86_64-linux-gnu-ld.bfd
   obj:/usr/bin/x86_64-linux-gnu-ld.bfd
   obj:/usr/bin/x86_64-linux-gnu-ld.bfd
   obj:/usr/bin/x86_64-linux-gnu-ld.bfd
   obj:/usr/bin/x86_64-linux-gnu-ld.bfd
   obj:/usr/bin/x86_64-linux-gnu-ld.bfd
   obj:/usr/bin/x86_64-linux-gnu-ld.bfd
   fun:(below main)
}
{
   <insert_a_suppression_name_here>
   Memcheck:Leak
   match-leak-kinds: reachable
   fun:realloc
   obj:/usr/lib/x86_64-linux-gnu/libbfd-2.38-system.so
   fun:_bfd_elf_add_dynamic_entry
   fun:bfd_elf_size_dynsym_hash_dynstr
   obj:/usr/bin/x86_64-linux-gnu-ld.bfd
   obj:/usr/bin/x86_64-linux-gnu-ld.bfd
   obj:/usr/bin/x86_64-linux-gnu-ld.bfd
   fun:(below main)
}
{
   <insert_a_suppression_name_here>
   Memcheck:Leak
   match-leak-kinds: reachable
   fun:calloc
   obj:/usr/lib/x86_64-linux-gnu/libbfd-2.38-system.so
   fun:bfd_fopen
   obj:/usr/bin/x86_64-linux-gnu-ld.bfd
   obj:/usr/bin/x86_64-linux-gnu-ld.bfd
   obj:/usr/bin/x86_64-linux-gnu-ld.bfd
   obj:/usr/bin/x86_64-linux-gnu-ld.bfd
   obj:/usr/bin/x86_64-linux-gnu-ld.bfd
   obj:/usr/bin/x86_64-linux-gnu-ld.bfd
   obj:/usr/bin/x86_64-linux-gnu-ld.bfd
   fun:(below main)
}
{
   <insert_a_suppression_name_here>
   Memcheck:Leak
   match-leak-kinds: reachable
   fun:calloc
   obj:/usr/lib/x86_64-linux-gnu/libbfd-2.38-system.so
   obj:/usr/lib/x86_64-linux-gnu/libbfd-2.38-system.so
   obj:/usr/bin/x86_64-linux-gnu-ld.bfd
   obj:/usr/bin/x86_64-linux-gnu-ld.bfd
   obj:/usr/bin/x86_64-linux-gnu-ld.bfd
   obj:/usr/bin/x86_64-linux-gnu-ld.bfd
   obj:/usr/bin/x86_64-linux-gnu-ld.bfd
   obj:/usr/bin/x86_64-linux-gnu-ld.bfd
   obj:/usr/bin/x86_64-linux-gnu-ld.bfd
   fun:(below main)
}
{
   <insert_a_suppression_name_here>
   Memcheck:Leak
   match-leak-kinds: reachable
   fun:calloc
   obj:/usr/lib/x86_64-linux-gnu/libbfd-2.38-system.so
   fun:bfd_fopen
   obj:/usr/bin/x86_64-linux-gnu-ld.bfd
   obj:/usr/bin/x86_64-linux-gnu-ld.bfd
   obj:/usr/bin/x86_64-linux-gnu-ld.bfd
   obj:/usr/bin/x86_64-linux-gnu-ld.bfd
   obj:/usr/bin/x86_64-linux-gnu-ld.bfd
   obj:/usr/bin/x86_64-linux-gnu-ld.bfd
   obj:/usr/bin/x86_64-linux-gnu-ld.bfd
   obj:/usr/bin/x86_64-linux-gnu-ld.bfd
   fun:(below main)
}
{
   <insert_a_suppression_name_here>
   Memcheck:Leak
   match-leak-kinds: reachable
   fun:calloc
   obj:/usr/lib/x86_64-linux-gnu/libbfd-2.38-system.so
   fun:_bfd_elf_parse_eh_frame
   fun:bfd_elf_discard_info
   obj:/usr/bin/x86_64-linux-gnu-ld.bfd
   obj:/usr/bin/x86_64-linux-gnu-ld.bfd
   obj:/usr/bin/x86_64-linux-gnu-ld.bfd
   fun:(below main)
}
{
   <insert_a_suppression_name_here>
   Memcheck:Leak
   match-leak-kinds: reachable
   fun:malloc
   fun:_objalloc_alloc
   fun:bfd_alloc
   fun:bfd_elf64_object_p
   fun:bfd_check_format_matches
   obj:/usr/bin/x86_64-linux-gnu-ld.bfd
   obj:/usr/bin/x86_64-linux-gnu-ld.bfd
   obj:/usr/bin/x86_64-linux-gnu-ld.bfd
   obj:/usr/bin/x86_64-linux-gnu-ld.bfd
   obj:/usr/bin/x86_64-linux-gnu-ld.bfd
   obj:/usr/bin/x86_64-linux-gnu-ld.bfd
   obj:/usr/bin/x86_64-linux-gnu-ld.bfd
}
{
   <insert_a_suppression_name_here>
   Memcheck:Leak
   match-leak-kinds: reachable
   fun:malloc
   fun:_objalloc_alloc
   fun:bfd_alloc
   fun:bfd_elf64_object_p
   fun:bfd_check_format_matches
   obj:/usr/bin/x86_64-linux-gnu-ld.bfd
   obj:/usr/bin/x86_64-linux-gnu-ld.bfd
   obj:/usr/bin/x86_64-linux-gnu-ld.bfd
   obj:/usr/bin/x86_64-linux-gnu-ld.bfd
   fun:(below main)
}
{
   <insert_a_suppression_name_here>
   Memcheck:Leak
   match-leak-kinds: reachable
   fun:malloc
   fun:xmalloc
   fun:_obstack_newchunk
   obj:/usr/bin/x86_64-linux-gnu-ld.bfd
   obj:/usr/bin/x86_64-linux-gnu-ld.bfd
   obj:/usr/bin/x86_64-linux-gnu-ld.bfd
   obj:/usr/bin/x86_64-linux-gnu-ld.bfd
   fun:(below main)
}
{
   <insert_a_suppression_name_here>
   Memcheck:Leak
   match-leak-kinds: reachable
   fun:malloc
   fun:xmalloc
   fun:_obstack_newchunk
   obj:/usr/bin/x86_64-linux-gnu-ld.bfd
   obj:/usr/bin/x86_64-linux-gnu-ld.bfd
   obj:/usr/bin/x86_64-linux-gnu-ld.bfd
   fun:(below main)
}
{
   <insert_a_suppression_name_here>
   Memcheck:Leak
   match-leak-kinds: reachable
   fun:malloc
   fun:xmalloc
   fun:_obstack_newchunk
   obj:/usr/bin/x86_64-linux-gnu-ld.bfd
   obj:/usr/bin/x86_64-linux-gnu-ld.bfd
   obj:/usr/bin/x86_64-linux-gnu-ld.bfd
   obj:/usr/bin/x86_64-linux-gnu-ld.bfd
   obj:/usr/bin/x86_64-linux-gnu-ld.bfd
   obj:/usr/bin/x86_64-linux-gnu-ld.bfd
   obj:/usr/bin/x86_64-linux-gnu-ld.bfd
   fun:(below main)
}
{
   <insert_a_suppression_name_here>
   Memcheck:Leak
   match-leak-kinds: reachable
   fun:malloc
   fun:xmalloc
   fun:_obstack_newchunk
   obj:/usr/bin/x86_64-linux-gnu-ld.bfd
   obj:/usr/bin/x86_64-linux-gnu-ld.bfd
   obj:/usr/bin/x86_64-linux-gnu-ld.bfd
   obj:/usr/bin/x86_64-linux-gnu-ld.bfd
   obj:/usr/bin/x86_64-linux-gnu-ld.bfd
   obj:/usr/bin/x86_64-linux-gnu-ld.bfd
   obj:/usr/bin/x86_64-linux-gnu-ld.bfd
   obj:/usr/bin/x86_64-linux-gnu-ld.bfd
   fun:(below main)
}
{
   <insert_a_suppression_name_here>
   Memcheck:Leak
   match-leak-kinds: reachable
   fun:calloc
   obj:/usr/lib/x86_64-linux-gnu/libbfd-2.38-system.so
   fun:bfd_fopen
   obj:/usr/bin/x86_64-linux-gnu-ld.bfd
   obj:/usr/bin/x86_64-linux-gnu-ld.bfd
   obj:/usr/bin/x86_64-linux-gnu-ld.bfd
   obj:/usr/bin/x86_64-linux-gnu-ld.bfd
   obj:/usr/bin/x86_64-linux-gnu-ld.bfd
   obj:/usr/bin/x86_64-linux-gnu-ld.bfd
   fun:(below main)
}
{
   <insert_a_suppression_name_here>
   Memcheck:Leak
   match-leak-kinds: reachable
   fun:malloc
   fun:xmalloc
   fun:_obstack_newchunk
   obj:/usr/bin/x86_64-linux-gnu-ld.bfd
   obj:/usr/bin/x86_64-linux-gnu-ld.bfd
   fun:(below main)
}
{
   <insert_a_suppression_name_here>
   Memcheck:Leak
   match-leak-kinds: reachable
   fun:malloc
   fun:xmalloc
   fun:_obstack_newchunk
   obj:/usr/bin/x86_64-linux-gnu-ld.bfd
   obj:/usr/bin/x86_64-linux-gnu-ld.bfd
   obj:/usr/bin/x86_64-linux-gnu-ld.bfd
   obj:/usr/bin/x86_64-linux-gnu-ld.bfd
   obj:/usr/bin/x86_64-linux-gnu-ld.bfd
   obj:/usr/bin/x86_64-linux-gnu-ld.bfd
   fun:(below main)
}
{
   <insert_a_suppression_name_here>
   Memcheck:Leak
   match-leak-kinds: definite
   fun:malloc
   fun:xmalloc
   obj:/usr/bin/x86_64-linux-gnu-ld.bfd
   obj:/usr/bin/x86_64-linux-gnu-ld.bfd
   obj:/usr/bin/x86_64-linux-gnu-ld.bfd
   obj:/usr/bin/x86_64-linux-gnu-ld.bfd
   obj:/usr/bin/x86_64-linux-gnu-ld.bfd
   fun:(below main)
}
{
   <insert_a_suppression_name_here>
   Memcheck:Leak
   match-leak-kinds: reachable
   fun:malloc
   fun:_objalloc_alloc
   fun:bfd_hash_allocate
   obj:/usr/lib/x86_64-linux-gnu/libbfd-2.38-system.so
   fun:bfd_hash_insert
   fun:bfd_make_section_anyway_with_flags
   fun:_bfd_elf_link_create_dynamic_sections
   fun:bfd_elf_link_add_symbols
   obj:/usr/bin/x86_64-linux-gnu-ld.bfd
   obj:/usr/bin/x86_64-linux-gnu-ld.bfd
   obj:/usr/bin/x86_64-linux-gnu-ld.bfd
   obj:/usr/bin/x86_64-linux-gnu-ld.bfd
}
{
   <insert_a_suppression_name_here>
   Memcheck:Leak
   match-leak-kinds: reachable
   fun:malloc
   fun:_objalloc_alloc
   fun:bfd_alloc
   fun:bfd_zalloc
   fun:_bfd_elf_new_section_hook
   obj:/usr/lib/x86_64-linux-gnu/libbfd-2.38-system.so
   fun:_bfd_elf_link_create_dynamic_sections
   fun:bfd_elf_link_add_symbols
   obj:/usr/bin/x86_64-linux-gnu-ld.bfd
   obj:/usr/bin/x86_64-linux-gnu-ld.bfd
   obj:/usr/bin/x86_64-linux-gnu-ld.bfd
   obj:/usr/bin/x86_64-linux-gnu-ld.bfd
}
{
   <insert_a_suppression_name_here>
   Memcheck:Leak
   match-leak-kinds: reachable
   fun:malloc
   fun:_objalloc_alloc
   fun:bfd_hash_allocate
   obj:/usr/lib/x86_64-linux-gnu/libbfd-2.38-system.so
   fun:bfd_hash_insert
   fun:bfd_make_section_anyway_with_flags
   fun:_bfd_elf_create_dynamic_sections
   fun:_bfd_elf_link_create_dynamic_sections
   fun:bfd_elf_link_add_symbols
   obj:/usr/bin/x86_64-linux-gnu-ld.bfd
   obj:/usr/bin/x86_64-linux-gnu-ld.bfd
   obj:/usr/bin/x86_64-linux-gnu-ld.bfd
}
{
   <insert_a_suppression_name_here>
   Memcheck:Leak
   match-leak-kinds: reachable
   fun:malloc
   fun:_objalloc_alloc
   fun:bfd_alloc
   fun:bfd_zalloc
   fun:_bfd_elf_new_section_hook
   obj:/usr/lib/x86_64-linux-gnu/libbfd-2.38-system.so
   fun:_bfd_elf_create_dynamic_sections
   fun:_bfd_elf_link_create_dynamic_sections
   fun:bfd_elf_link_add_symbols
   obj:/usr/bin/x86_64-linux-gnu-ld.bfd
   obj:/usr/bin/x86_64-linux-gnu-ld.bfd
   obj:/usr/bin/x86_64-linux-gnu-ld.bfd
}
{
   <insert_a_suppression_name_here>
   Memcheck:Leak
   match-leak-kinds: reachable
   fun:malloc
   fun:_objalloc_alloc
   fun:bfd_alloc
   fun:bfd_zalloc
   fun:_bfd_elf_new_section_hook
   obj:/usr/lib/x86_64-linux-gnu/libbfd-2.38-system.so
   fun:_bfd_elf_make_section_from_shdr
   fun:bfd_section_from_shdr
   fun:bfd_elf64_object_p
   fun:bfd_check_format_matches
   obj:/usr/bin/x86_64-linux-gnu-ld.bfd
   obj:/usr/bin/x86_64-linux-gnu-ld.bfd
}
{
   <insert_a_suppression_name_here>
   Memcheck:Leak
   match-leak-kinds: reachable
   fun:malloc
   fun:_objalloc_alloc
   fun:bfd_alloc
   fun:_bfd_elf_link_info_read_relocs
   fun:bfd_elf_link_add_symbols
   obj:/usr/bin/x86_64-linux-gnu-ld.bfd
   obj:/usr/bin/x86_64-linux-gnu-ld.bfd
   obj:/usr/bin/x86_64-linux-gnu-ld.bfd
   obj:/usr/bin/x86_64-linux-gnu-ld.bfd
   fun:(below main)
}
{
   <insert_a_suppression_name_here>
   Memcheck:Leak
   match-leak-kinds: reachable
   fun:malloc
   fun:_objalloc_alloc
   fun:bfd_alloc
   fun:bfd_zalloc
   fun:bfd_elf64_object_p
   fun:bfd_check_format_matches
   obj:/usr/bin/x86_64-linux-gnu-ld.bfd
   obj:/usr/bin/x86_64-linux-gnu-ld.bfd
   obj:/usr/bin/x86_64-linux-gnu-ld.bfd
   obj:/usr/bin/x86_64-linux-gnu-ld.bfd
   obj:/usr/bin/x86_64-linux-gnu-ld.bfd
   obj:/usr/bin/x86_64-linux-gnu-ld.bfd
}
{
   <insert_a_suppression_name_here>
   Memcheck:Leak
   match-leak-kinds: reachable
   fun:malloc
   fun:_objalloc_alloc
   fun:bfd_alloc
   fun:bfd_zalloc
   fun:_bfd_elf_make_empty_symbol
   fun:_bfd_elf_new_section_hook
   obj:/usr/lib/x86_64-linux-gnu/libbfd-2.38-system.so
   fun:_bfd_elf_make_section_from_shdr
   fun:bfd_section_from_shdr
   fun:bfd_elf64_object_p
   fun:bfd_check_format_matches
   obj:/usr/bin/x86_64-linux-gnu-ld.bfd
}
{
   <insert_a_suppression_name_here>
   Memcheck:Leak
   match-leak-kinds: reachable
   fun:malloc
   fun:_objalloc_alloc
   fun:bfd_alloc
   fun:bfd_elf_link_add_symbols
   obj:/usr/bin/x86_64-linux-gnu-ld.bfd
   obj:/usr/bin/x86_64-linux-gnu-ld.bfd
   obj:/usr/bin/x86_64-linux-gnu-ld.bfd
   obj:/usr/bin/x86_64-linux-gnu-ld.bfd
   obj:/usr/bin/x86_64-linux-gnu-ld.bfd
   fun:(below main)
}
{
   <insert_a_suppression_name_here>
   Memcheck:Leak
   match-leak-kinds: reachable
   fun:malloc
   fun:_objalloc_alloc
   fun:bfd_alloc
   fun:bfd_section_from_shdr
   fun:bfd_elf64_object_p
   fun:bfd_check_format_matches
   obj:/usr/bin/x86_64-linux-gnu-ld.bfd
   obj:/usr/bin/x86_64-linux-gnu-ld.bfd
   obj:/usr/bin/x86_64-linux-gnu-ld.bfd
   obj:/usr/bin/x86_64-linux-gnu-ld.bfd
   obj:/usr/bin/x86_64-linux-gnu-ld.bfd
   obj:/usr/bin/x86_64-linux-gnu-ld.bfd
}
{
   <insert_a_suppression_name_here>
   Memcheck:Leak
   match-leak-kinds: reachable
   fun:malloc
   fun:_objalloc_alloc
   fun:bfd_hash_allocate
   obj:/usr/lib/x86_64-linux-gnu/libbfd-2.38-system.so
   fun:bfd_hash_insert
   fun:bfd_make_section_anyway_with_flags
   fun:_bfd_elf_make_section_from_shdr
   fun:bfd_section_from_shdr
   fun:bfd_elf64_object_p
   fun:bfd_check_format_matches
   obj:/usr/bin/x86_64-linux-gnu-ld.bfd
   obj:/usr/bin/x86_64-linux-gnu-ld.bfd
}
{
   <insert_a_suppression_name_here>
   Memcheck:Leak
   match-leak-kinds: reachable
   fun:malloc
   fun:_objalloc_alloc
   fun:bfd_alloc
   obj:/usr/lib/x86_64-linux-gnu/libbfd-2.38-system.so
   fun:_bfd_elf_make_section_from_shdr
   fun:bfd_section_from_shdr
   fun:bfd_elf64_object_p
   fun:bfd_check_format_matches
   obj:/usr/bin/x86_64-linux-gnu-ld.bfd
   obj:/usr/bin/x86_64-linux-gnu-ld.bfd
   obj:/usr/bin/x86_64-linux-gnu-ld.bfd
   obj:/usr/bin/x86_64-linux-gnu-ld.bfd
}
{
   <insert_a_suppression_name_here>
   Memcheck:Leak
   match-leak-kinds: reachable
   fun:malloc
   fun:_objalloc_alloc
   fun:bfd_alloc
   fun:bfd_zalloc
   fun:_bfd_elf_new_section_hook
   obj:/usr/lib/x86_64-linux-gnu/libbfd-2.38-system.so
   fun:_bfd_elf_make_dynamic_reloc_section
   fun:_bfd_x86_elf_check_relocs
   fun:_bfd_elf_link_iterate_on_relocs
   obj:/usr/bin/x86_64-linux-gnu-ld.bfd
   obj:/usr/bin/x86_64-linux-gnu-ld.bfd
   fun:(below main)
}
{
   <insert_a_suppression_name_here>
   Memcheck:Leak
   match-leak-kinds: reachable
   fun:malloc
   fun:_objalloc_alloc
   fun:bfd_alloc
   fun:bfd_elf64_object_p
   fun:bfd_check_format_matches
   obj:/usr/bin/x86_64-linux-gnu-ld.bfd
   obj:/usr/bin/x86_64-linux-gnu-ld.bfd
   obj:/usr/bin/x86_64-linux-gnu-ld.bfd
   obj:/usr/bin/x86_64-linux-gnu-ld.bfd
   obj:/usr/bin/x86_64-linux-gnu-ld.bfd
   obj:/usr/bin/x86_64-linux-gnu-ld.bfd
   fun:(below main)
}
{
   <insert_a_suppression_name_here>
   Memcheck:Leak
   match-leak-kinds: reachable
   fun:malloc
   fun:_objalloc_alloc
   fun:bfd_alloc
   fun:bfd_elf_get_str_section
   fun:bfd_elf_string_from_elf_section
   fun:bfd_section_from_shdr
   fun:bfd_elf64_object_p
   fun:bfd_check_format_matches
   obj:/usr/bin/x86_64-linux-gnu-ld.bfd
   obj:/usr/bin/x86_64-linux-gnu-ld.bfd
   obj:/usr/bin/x86_64-linux-gnu-ld.bfd
   obj:/usr/bin/x86_64-linux-gnu-ld.bfd
}
{
   <insert_a_suppression_name_here>
   Memcheck:Leak
   match-leak-kinds: reachable
   fun:malloc
   fun:_objalloc_alloc
   fun:bfd_alloc
   fun:_bfd_elf_slurp_version_tables
   fun:bfd_elf_link_add_symbols
   obj:/usr/bin/x86_64-linux-gnu-ld.bfd
   obj:/usr/bin/x86_64-linux-gnu-ld.bfd
   obj:/usr/bin/x86_64-linux-gnu-ld.bfd
   obj:/usr/bin/x86_64-linux-gnu-ld.bfd
   obj:/usr/bin/x86_64-linux-gnu-ld.bfd
   fun:(below main)
}
{
   <insert_a_suppression_name_here>
   Memcheck:Leak
   match-leak-kinds: indirect
   fun:malloc
   fun:xmalloc
   obj:/usr/bin/x86_64-linux-gnu-ld.bfd
   obj:/usr/bin/x86_64-linux-gnu-ld.bfd
   fun:(below main)
}
{
   <insert_a_suppression_name_here>
   Memcheck:Leak
   match-leak-kinds: definite
   fun:malloc
   fun:xmalloc
   obj:/usr/bin/x86_64-linux-gnu-ld.bfd
   obj:/usr/bin/x86_64-linux-gnu-ld.bfd
   fun:(below main)
}
{
   <insert_a_suppression_name_here>
   Memcheck:Leak
   match-leak-kinds: definite
   fun:malloc
   fun:xmalloc
   obj:/usr/bin/x86_64-linux-gnu-ld.bfd
   obj:/usr/bin/x86_64-linux-gnu-ld.bfd
   obj:/usr/bin/x86_64-linux-gnu-ld.bfd
   obj:/usr/bin/x86_64-linux-gnu-ld.bfd
   obj:/usr/bin/x86_64-linux-gnu-ld.bfd
   obj:/usr/bin/x86_64-linux-gnu-ld.bfd
   fun:(below main)
}
{
   <insert_a_suppression_name_here>
   Memcheck:Leak
   match-leak-kinds: reachable
   fun:malloc
   fun:_objalloc_alloc
   fun:bfd_alloc
   fun:bfd_zalloc
   fun:bfd_elf_link_add_symbols
   obj:/usr/bin/x86_64-linux-gnu-ld.bfd
   obj:/usr/bin/x86_64-linux-gnu-ld.bfd
   obj:/usr/bin/x86_64-linux-gnu-ld.bfd
   obj:/usr/bin/x86_64-linux-gnu-ld.bfd
   obj:/usr/bin/x86_64-linux-gnu-ld.bfd
   fun:(below main)
}
{
   <insert_a_suppression_name_here>
   Memcheck:Leak
   match-leak-kinds: reachable
   fun:malloc
   fun:_objalloc_alloc
   fun:bfd_hash_table_init_n
   fun:bfd_check_format_matches
   obj:/usr/bin/x86_64-linux-gnu-ld.bfd
   obj:/usr/bin/x86_64-linux-gnu-ld.bfd
   obj:/usr/bin/x86_64-linux-gnu-ld.bfd
   obj:/usr/bin/x86_64-linux-gnu-ld.bfd
   obj:/usr/bin/x86_64-linux-gnu-ld.bfd
   obj:/usr/bin/x86_64-linux-gnu-ld.bfd
   obj:/usr/bin/x86_64-linux-gnu-ld.bfd
   obj:/usr/bin/x86_64-linux-gnu-ld.bfd
}
{
   <insert_a_suppression_name_here>
   Memcheck:Leak
   match-leak-kinds: reachable
   fun:malloc
   fun:_objalloc_alloc
   fun:bfd_hash_table_init_n
   fun:bfd_check_format_matches
   obj:/usr/bin/x86_64-linux-gnu-ld.bfd
   obj:/usr/bin/x86_64-linux-gnu-ld.bfd
   obj:/usr/bin/x86_64-linux-gnu-ld.bfd
   obj:/usr/bin/x86_64-linux-gnu-ld.bfd
   fun:(below main)
}
{
   <insert_a_suppression_name_here>
   Memcheck:Leak
   match-leak-kinds: reachable
   fun:malloc
   fun:_objalloc_alloc
   fun:bfd_alloc
   fun:bfd_elf_get_str_section
   fun:bfd_elf_string_from_elf_section
   fun:bfd_elf_link_add_symbols
   obj:/usr/bin/x86_64-linux-gnu-ld.bfd
   obj:/usr/bin/x86_64-linux-gnu-ld.bfd
   obj:/usr/bin/x86_64-linux-gnu-ld.bfd
   obj:/usr/bin/x86_64-linux-gnu-ld.bfd
   obj:/usr/bin/x86_64-linux-gnu-ld.bfd
   fun:(below main)
}
{
   <insert_a_suppression_name_here>
   Memcheck:Leak
   match-leak-kinds: indirect
   fun:malloc
   obj:/usr/bin/x86_64-linux-gnu-ld.bfd
   obj:/usr/bin/x86_64-linux-gnu-ld.bfd
   obj:/usr/bin/x86_64-linux-gnu-ld.bfd
   obj:/usr/bin/x86_64-linux-gnu-ld.bfd
   obj:/usr/bin/x86_64-linux-gnu-ld.bfd
   obj:/usr/bin/x86_64-linux-gnu-ld.bfd
   obj:/usr/bin/x86_64-linux-gnu-ld.bfd
   obj:/usr/bin/x86_64-linux-gnu-ld.bfd
   obj:/usr/bin/x86_64-linux-gnu-ld.bfd
   obj:/usr/bin/x86_64-linux-gnu-ld.bfd
   fun:(below main)
}
{
   <insert_a_suppression_name_here>
   Memcheck:Leak
   match-leak-kinds: indirect
   fun:malloc
   obj:/usr/bin/x86_64-linux-gnu-ld.bfd
   obj:/usr/bin/x86_64-linux-gnu-ld.bfd
   obj:/usr/bin/x86_64-linux-gnu-ld.bfd
   obj:/usr/bin/x86_64-linux-gnu-ld.bfd
   obj:/usr/bin/x86_64-linux-gnu-ld.bfd
   obj:/usr/bin/x86_64-linux-gnu-ld.bfd
   fun:(below main)
}
{
   <insert_a_suppression_name_here>
   Memcheck:Leak
   match-leak-kinds: definite
   fun:malloc
   obj:/usr/bin/x86_64-linux-gnu-ld.bfd
   obj:/usr/bin/x86_64-linux-gnu-ld.bfd
   obj:/usr/bin/x86_64-linux-gnu-ld.bfd
   obj:/usr/bin/x86_64-linux-gnu-ld.bfd
   obj:/usr/bin/x86_64-linux-gnu-ld.bfd
   obj:/usr/bin/x86_64-linux-gnu-ld.bfd
   obj:/usr/bin/x86_64-linux-gnu-ld.bfd
   obj:/usr/bin/x86_64-linux-gnu-ld.bfd
   obj:/usr/bin/x86_64-linux-gnu-ld.bfd
   obj:/usr/bin/x86_64-linux-gnu-ld.bfd
   fun:(below main)
}
{
   <insert_a_suppression_name_here>
   Memcheck:Leak
   match-leak-kinds: definite
   fun:malloc
   obj:/usr/bin/x86_64-linux-gnu-ld.bfd
   obj:/usr/bin/x86_64-linux-gnu-ld.bfd
   obj:/usr/bin/x86_64-linux-gnu-ld.bfd
   obj:/usr/bin/x86_64-linux-gnu-ld.bfd
   obj:/usr/bin/x86_64-linux-gnu-ld.bfd
   obj:/usr/bin/x86_64-linux-gnu-ld.bfd
   fun:(below main)
}
{
   <insert_a_suppression_name_here>
   Memcheck:Leak
   match-leak-kinds: reachable
   fun:malloc
   fun:_objalloc_alloc
   fun:bfd_alloc
   obj:/usr/lib/x86_64-linux-gnu/libbfd-2.38-system.so
   obj:/usr/lib/x86_64-linux-gnu/libbfd-2.38-system.so
   fun:bfd_check_format_matches
   obj:/usr/bin/x86_64-linux-gnu-ld.bfd
   obj:/usr/bin/x86_64-linux-gnu-ld.bfd
   obj:/usr/bin/x86_64-linux-gnu-ld.bfd
   obj:/usr/bin/x86_64-linux-gnu-ld.bfd
   obj:/usr/bin/x86_64-linux-gnu-ld.bfd
   obj:/usr/bin/x86_64-linux-gnu-ld.bfd
}
{
   <insert_a_suppression_name_here>
   Memcheck:Leak
   match-leak-kinds: reachable
   fun:malloc
   fun:_objalloc_alloc
   fun:bfd_hash_table_init_n
   fun:bfd_check_format_matches
   obj:/usr/bin/x86_64-linux-gnu-ld.bfd
   obj:/usr/bin/x86_64-linux-gnu-ld.bfd
   obj:/usr/bin/x86_64-linux-gnu-ld.bfd
   obj:/usr/bin/x86_64-linux-gnu-ld.bfd
   obj:/usr/bin/x86_64-linux-gnu-ld.bfd
   obj:/usr/bin/x86_64-linux-gnu-ld.bfd
   obj:/usr/bin/x86_64-linux-gnu-ld.bfd
   fun:(below main)
}
{
   <insert_a_suppression_name_here>
   Memcheck:Leak
   match-leak-kinds: reachable
   fun:malloc
   fun:_objalloc_alloc
   fun:bfd_hash_table_init_n
   fun:bfd_check_format_matches
   obj:/usr/bin/x86_64-linux-gnu-ld.bfd
   obj:/usr/bin/x86_64-linux-gnu-ld.bfd
   obj:/usr/bin/x86_64-linux-gnu-ld.bfd
   obj:/usr/bin/x86_64-linux-gnu-ld.bfd
   obj:/usr/bin/x86_64-linux-gnu-ld.bfd
   obj:/usr/bin/x86_64-linux-gnu-ld.bfd
   fun:(below main)
}
{
   <insert_a_suppression_name_here>
   Memcheck:Leak
   match-leak-kinds: reachable
   fun:malloc
   obj:/usr/lib/gcc/x86_64-linux-gnu/11/collect2
   obj:/usr/lib/gcc/x86_64-linux-gnu/11/collect2
   fun:(below main)
}
{
   <insert_a_suppression_name_here>
   Memcheck:Leak
   match-leak-kinds: reachable
   fun:malloc
   obj:/usr/lib/gcc/x86_64-linux-gnu/11/collect2
   obj:/usr/lib/gcc/x86_64-linux-gnu/11/collect2
   obj:/usr/lib/gcc/x86_64-linux-gnu/11/collect2
   fun:(below main)
}
{
   <insert_a_suppression_name_here>
   Memcheck:Leak
   match-leak-kinds: indirect
   fun:malloc
   obj:/usr/lib/gcc/x86_64-linux-gnu/11/collect2
   obj:/usr/lib/gcc/x86_64-linux-gnu/11/collect2
   fun:(below main)
}
{
   <insert_a_suppression_name_here>
   Memcheck:Leak
   match-leak-kinds: indirect
   fun:malloc
   obj:/usr/lib/gcc/x86_64-linux-gnu/11/collect2
   obj:/usr/lib/gcc/x86_64-linux-gnu/11/collect2
   obj:/usr/lib/gcc/x86_64-linux-gnu/11/collect2
   fun:(below main)
}
{
   <insert_a_suppression_name_here>
   Memcheck:Leak
   match-leak-kinds: reachable
   fun:calloc
   obj:/usr/lib/gcc/x86_64-linux-gnu/11/collect2
   obj:/usr/lib/gcc/x86_64-linux-gnu/11/collect2
   fun:(below main)
}
{
   <insert_a_suppression_name_here>
   Memcheck:Leak
   match-leak-kinds: definite
   fun:calloc
   obj:/usr/lib/gcc/x86_64-linux-gnu/11/collect2
   obj:/usr/lib/gcc/x86_64-linux-gnu/11/collect2
   fun:(below main)
}
{
   <insert_a_suppression_name_here>
   Memcheck:Leak
   match-leak-kinds: reachable
   fun:malloc
   obj:/usr/lib/gcc/x86_64-linux-gnu/11/collect2
   obj:/usr/lib/gcc/x86_64-linux-gnu/11/collect2
   obj:/usr/lib/gcc/x86_64-linux-gnu/11/collect2
   obj:/usr/lib/gcc/x86_64-linux-gnu/11/collect2
   fun:(below main)
}
{
   <insert_a_suppression_name_here>
   Memcheck:Leak
   match-leak-kinds: reachable
   fun:malloc
   obj:/usr/lib/gcc/x86_64-linux-gnu/11/collect2
   fun:call_init
   fun:__libc_start_main@@GLIBC_2.34
   obj:/usr/lib/gcc/x86_64-linux-gnu/11/collect2
   obj:*
   obj:*
   obj:*
   obj:*
   obj:*
   obj:*
   obj:*
   obj:*
}
{
   <insert_a_suppression_name_here>
   Memcheck:Leak
   match-leak-kinds: reachable
   fun:malloc
   obj:/usr/bin/x86_64-linux-gnu-gcc-11
   obj:/usr/bin/x86_64-linux-gnu-gcc-11
   fun:(below main)
}
{
   <insert_a_suppression_name_here>
   Memcheck:Leak
   match-leak-kinds: reachable
   fun:malloc
   obj:/usr/bin/x86_64-linux-gnu-gcc-11
   obj:/usr/bin/x86_64-linux-gnu-gcc-11
   obj:/usr/bin/x86_64-linux-gnu-gcc-11
   obj:/usr/bin/x86_64-linux-gnu-gcc-11
   obj:/usr/bin/x86_64-linux-gnu-gcc-11
   obj:/usr/bin/x86_64-linux-gnu-gcc-11
   obj:/usr/bin/x86_64-linux-gnu-gcc-11
   obj:/usr/bin/x86_64-linux-gnu-gcc-11
   obj:/usr/bin/x86_64-linux-gnu-gcc-11
   obj:/usr/bin/x86_64-linux-gnu-gcc-11
   obj:/usr/bin/x86_64-linux-gnu-gcc-11
}
{
   <insert_a_suppression_name_here>
   Memcheck:Leak
   match-leak-kinds: reachable
   fun:malloc
   obj:/usr/bin/x86_64-linux-gnu-gcc-11
   obj:/usr/bin/x86_64-linux-gnu-gcc-11
   obj:/usr/bin/x86_64-linux-gnu-gcc-11
   obj:/usr/bin/x86_64-linux-gnu-gcc-11
   fun:(below main)
}
{
   <insert_a_suppression_name_here>
   Memcheck:Leak
   match-leak-kinds: reachable
   fun:malloc
   obj:/usr/bin/x86_64-linux-gnu-gcc-11
   obj:/usr/bin/x86_64-linux-gnu-gcc-11
   obj:/usr/bin/x86_64-linux-gnu-gcc-11
   fun:(below main)
}
{
   <insert_a_suppression_name_here>
   Memcheck:Leak
   match-leak-kinds: reachable
   fun:calloc
   obj:/usr/bin/x86_64-linux-gnu-gcc-11
   obj:/usr/bin/x86_64-linux-gnu-gcc-11
   fun:(below main)
}
{
   <insert_a_suppression_name_here>
   Memcheck:Leak
   match-leak-kinds: reachable
   fun:malloc
   obj:/usr/bin/x86_64-linux-gnu-gcc-11
   obj:/usr/bin/x86_64-linux-gnu-gcc-11
   obj:/usr/bin/x86_64-linux-gnu-gcc-11
   obj:/usr/bin/x86_64-linux-gnu-gcc-11
   obj:/usr/bin/x86_64-linux-gnu-gcc-11
   fun:(below main)
}
{
   <insert_a_suppression_name_here>
   Memcheck:Leak
   match-leak-kinds: reachable
   fun:malloc
   obj:/usr/bin/x86_64-linux-gnu-gcc-11
   obj:/usr/bin/x86_64-linux-gnu-gcc-11
   obj:/usr/bin/x86_64-linux-gnu-gcc-11
   obj:/usr/bin/x86_64-linux-gnu-gcc-11
   obj:/usr/bin/x86_64-linux-gnu-gcc-11
   obj:/usr/bin/x86_64-linux-gnu-gcc-11
   fun:(below main)
}
{
   <insert_a_suppression_name_here>
   Memcheck:Leak
   match-leak-kinds: reachable
   fun:malloc
   obj:/usr/bin/x86_64-linux-gnu-gcc-11
   obj:/usr/bin/x86_64-linux-gnu-gcc-11
   obj:/usr/bin/x86_64-linux-gnu-gcc-11
   obj:/usr/bin/x86_64-linux-gnu-gcc-11
   obj:/usr/bin/x86_64-linux-gnu-gcc-11
   obj:/usr/bin/x86_64-linux-gnu-gcc-11
   obj:/usr/bin/x86_64-linux-gnu-gcc-11
   obj:/usr/bin/x86_64-linux-gnu-gcc-11
   fun:(below main)
}
{
   <insert_a_suppression_name_here>
   Memcheck:Leak
   match-leak-kinds: definite
   fun:malloc
   obj:/usr/bin/x86_64-linux-gnu-gcc-11
   obj:/usr/bin/x86_64-linux-gnu-gcc-11
   obj:/usr/bin/x86_64-linux-gnu-gcc-11
   obj:/usr/bin/x86_64-linux-gnu-gcc-11
   obj:/usr/bin/x86_64-linux-gnu-gcc-11
   obj:/usr/bin/x86_64-linux-gnu-gcc-11
   obj:/usr/bin/x86_64-linux-gnu-gcc-11
   obj:/usr/bin/x86_64-linux-gnu-gcc-11
   obj:/usr/bin/x86_64-linux-gnu-gcc-11
   obj:/usr/bin/x86_64-linux-gnu-gcc-11
   obj:/usr/bin/x86_64-linux-gnu-gcc-11
}
{
   <insert_a_suppression_name_here>
   Memcheck:Leak
   match-leak-kinds: indirect
   fun:malloc
   obj:/usr/bin/x86_64-linux-gnu-gcc-11
   obj:/usr/bin/x86_64-linux-gnu-gcc-11
   obj:/usr/bin/x86_64-linux-gnu-gcc-11
   obj:/usr/bin/x86_64-linux-gnu-gcc-11
   obj:/usr/bin/x86_64-linux-gnu-gcc-11
   obj:/usr/bin/x86_64-linux-gnu-gcc-11
   obj:/usr/bin/x86_64-linux-gnu-gcc-11
   obj:/usr/bin/x86_64-linux-gnu-gcc-11
   obj:/usr/bin/x86_64-linux-gnu-gcc-11
   obj:/usr/bin/x86_64-linux-gnu-gcc-11
   obj:/usr/bin/x86_64-linux-gnu-gcc-11
}
{
   <insert_a_suppression_name_here>
   Memcheck:Leak
   match-leak-kinds: definite
   fun:malloc
   obj:/usr/bin/x86_64-linux-gnu-gcc-11
   obj:/usr/bin/x86_64-linux-gnu-gcc-11
   obj:/usr/bin/x86_64-linux-gnu-gcc-11
   obj:/usr/bin/x86_64-linux-gnu-gcc-11
   fun:(below main)
}
{
   <insert_a_suppression_name_here>
   Memcheck:Leak
   match-leak-kinds: definite
   fun:malloc
   obj:/usr/bin/x86_64-linux-gnu-gcc-11
   obj:/usr/bin/x86_64-linux-gnu-gcc-11
   obj:/usr/bin/x86_64-linux-gnu-gcc-11
   obj:/usr/bin/x86_64-linux-gnu-gcc-11
   obj:/usr/bin/x86_64-linux-gnu-gcc-11
   fun:(below main)
}
{
   <insert_a_suppression_name_here>
   Memcheck:Leak
   match-leak-kinds: definite
   fun:malloc
   obj:/usr/bin/x86_64-linux-gnu-gcc-11
   obj:/usr/bin/x86_64-linux-gnu-gcc-11
   obj:/usr/bin/x86_64-linux-gnu-gcc-11
   fun:(below main)
}
{
   <insert_a_suppression_name_here>
   Memcheck:Leak
   match-leak-kinds: reachable
   fun:calloc
   obj:/usr/bin/x86_64-linux-gnu-gcc-11
   obj:/usr/bin/x86_64-linux-gnu-gcc-11
   obj:/usr/bin/x86_64-linux-gnu-gcc-11
   obj:/usr/bin/x86_64-linux-gnu-gcc-11
   fun:(below main)
}
{
   <insert_a_suppression_name_here>
   Memcheck:Leak
   match-leak-kinds: definite
   fun:malloc
   obj:/usr/bin/x86_64-linux-gnu-gcc-11
   obj:/usr/bin/x86_64-linux-gnu-gcc-11
   obj:/usr/bin/x86_64-linux-gnu-gcc-11
   obj:/usr/bin/x86_64-linux-gnu-gcc-11
   obj:/usr/bin/x86_64-linux-gnu-gcc-11
   obj:/usr/bin/x86_64-linux-gnu-gcc-11
   obj:/usr/bin/x86_64-linux-gnu-gcc-11
   obj:/usr/bin/x86_64-linux-gnu-gcc-11
   obj:/usr/bin/x86_64-linux-gnu-gcc-11
   fun:(below main)
}
{
   <insert_a_suppression_name_here>
   Memcheck:Leak
   match-leak-kinds: reachable
   fun:calloc
   obj:/usr/bin/x86_64-linux-gnu-gcc-11
   obj:/usr/bin/x86_64-linux-gnu-gcc-11
   obj:/usr/bin/x86_64-linux-gnu-gcc-11
   fun:(below main)
}
{
   <insert_a_suppression_name_here>
   Memcheck:Leak
   match-leak-kinds: reachable
   fun:malloc
   obj:/usr/bin/x86_64-linux-gnu-gcc-11
   obj:/usr/bin/x86_64-linux-gnu-gcc-11
   obj:/usr/bin/x86_64-linux-gnu-gcc-11
   obj:/usr/bin/x86_64-linux-gnu-gcc-11
   obj:/usr/bin/x86_64-linux-gnu-gcc-11
   obj:/usr/bin/x86_64-linux-gnu-gcc-11
   obj:/usr/bin/x86_64-linux-gnu-gcc-11
   obj:/usr/bin/x86_64-linux-gnu-gcc-11
   obj:/usr/bin/x86_64-linux-gnu-gcc-11
   fun:(below main)
}
{
   <insert_a_suppression_name_here>
   Memcheck:Leak
   match-leak-kinds: reachable
   fun:realloc
   obj:/usr/bin/x86_64-linux-gnu-gcc-11
   obj:/usr/bin/x86_64-linux-gnu-gcc-11
   obj:/usr/bin/x86_64-linux-gnu-gcc-11
   obj:/usr/bin/x86_64-linux-gnu-gcc-11
   obj:/usr/bin/x86_64-linux-gnu-gcc-11
   obj:/usr/bin/x86_64-linux-gnu-gcc-11
   obj:/usr/bin/x86_64-linux-gnu-gcc-11
   obj:/usr/bin/x86_64-linux-gnu-gcc-11
   obj:/usr/bin/x86_64-linux-gnu-gcc-11
   obj:/usr/bin/x86_64-linux-gnu-gcc-11
   obj:/usr/bin/x86_64-linux-gnu-gcc-11
}
{
   <insert_a_suppression_name_here>
   Memcheck:Leak
   match-leak-kinds: reachable
   fun:malloc
   obj:/usr/bin/x86_64-linux-gnu-gcc-11
   fun:_obstack_newchunk
   obj:/usr/bin/x86_64-linux-gnu-gcc-11
   obj:/usr/bin/x86_64-linux-gnu-gcc-11
   obj:/usr/bin/x86_64-linux-gnu-gcc-11
   obj:/usr/bin/x86_64-linux-gnu-gcc-11
   obj:/usr/bin/x86_64-linux-gnu-gcc-11
   obj:/usr/bin/x86_64-linux-gnu-gcc-11
   obj:/usr/bin/x86_64-linux-gnu-gcc-11
   obj:/usr/bin/x86_64-linux-gnu-gcc-11
   obj:/usr/bin/x86_64-linux-gnu-gcc-11
}
{
   <insert_a_suppression_name_here>
   Memcheck:Leak
   match-leak-kinds: reachable
   fun:malloc
   obj:/usr/bin/x86_64-linux-gnu-gcc-11
   fun:call_init
   fun:__libc_start_main@@GLIBC_2.34
   obj:/usr/bin/x86_64-linux-gnu-gcc-11
   obj:*
   obj:*
   obj:*
   obj:*
   obj:*
   obj:*
   obj:*
}
{
   <insert_a_suppression_name_here>
   Memcheck:Leak
   match-leak-kinds: reachable
   fun:malloc
   obj:/usr/bin/xargs
   obj:/usr/bin/xargs
   obj:/usr/bin/xargs
   fun:(below main)
}
{
   <insert_a_suppression_name_here>
   Memcheck:Leak
   match-leak-kinds: reachable
   fun:malloc
   obj:/usr/bin/xargs
   obj:/usr/bin/xargs
   obj:/usr/bin/xargs
   obj:/usr/bin/xargs
   fun:(below main)
}
{
   <insert_a_suppression_name_here>
   Memcheck:Leak
   match-leak-kinds: reachable
   fun:malloc
   obj:/usr/bin/xargs
   obj:/usr/bin/xargs
   fun:(below main)
}
{
   <insert_a_suppression_name_here>
   Memcheck:Leak
   match-leak-kinds: reachable
   fun:malloc
   obj:/usr/bin/xargs
   fun:(below main)
}
{
   <insert_a_suppression_name_here>
   Memcheck:Leak
   match-leak-kinds: definite
   fun:malloc
   obj:/usr/bin/yes
   fun:(below main)
}
{
   <insert_a_suppression_name_here>
   Memcheck:Leak
   match-leak-kinds: reachable
   fun:malloc
   fun:array_create_element
   fun:array_rshift
   fun:main
}
{
   <insert_a_suppression_name_here>
   Memcheck:Leak
   match-leak-kinds: reachable
   fun:malloc
   fun:array_create_element
   fun:array_insert
   fun:set_pipestatus_array
   obj:/usr/bin/bash
   fun:execute_command_internal
   fun:execute_command
   fun:reader_loop
   fun:main
}
{
   <insert_a_suppression_name_here>
   Memcheck:Leak
   match-leak-kinds: reachable
   fun:malloc
   fun:make_variable_value
   obj:/usr/bin/bash
   obj:/usr/bin/bash
   fun:execute_command_internal
   fun:execute_command
   fun:reader_loop
   fun:main
}
{
   <insert_a_suppression_name_here>
   Memcheck:Leak
   match-leak-kinds: reachable
   fun:malloc
   obj:/usr/bin/bash
   fun:execute_command_internal
   fun:execute_command
   fun:reader_loop
   fun:main
}
{
   <insert_a_suppression_name_here>
   Memcheck:Leak
   match-leak-kinds: reachable
   fun:realloc
   obj:/usr/bin/bash
   obj:/usr/bin/bash
   fun:yyparse
   fun:parse_command
   fun:read_command
   fun:reader_loop
   fun:main
}
{
   <insert_a_suppression_name_here>
   Memcheck:Leak
   match-leak-kinds: reachable
   fun:malloc
   obj:/usr/bin/bash
   obj:/usr/bin/bash
   fun:set_pipestatus_array
   obj:/usr/bin/bash
   fun:execute_command_internal
   fun:execute_command
   fun:reader_loop
   fun:main
}
{
   <insert_a_suppression_name_here>
   Memcheck:Leak
   match-leak-kinds: reachable
   fun:malloc
   obj:/usr/bin/bash
   fun:set_pipestatus_array
   obj:/usr/bin/bash
   fun:execute_command_internal
   fun:execute_command
   fun:reader_loop
   fun:main
}
{
   <insert_a_suppression_name_here>
   Memcheck:Leak
   match-leak-kinds: reachable
   fun:malloc
   fun:alloc_word_desc
   obj:/usr/bin/bash
   fun:yyparse
   fun:parse_command
   fun:read_command
   fun:reader_loop
   fun:main
}
{
   <insert_a_suppression_name_here>
   Memcheck:Leak
   match-leak-kinds: reachable
   fun:malloc
   fun:make_simple_command
   fun:yyparse
   fun:parse_command
   fun:read_command
   fun:reader_loop
   fun:main
}
{
   <insert_a_suppression_name_here>
   Memcheck:Leak
   match-leak-kinds: reachable
   fun:malloc
   fun:make_bare_word
   fun:copy_word_list
   obj:/usr/bin/bash
   obj:/usr/bin/bash
   fun:execute_command_internal
   fun:execute_command
   fun:reader_loop
   fun:main
}
{
   <insert_a_suppression_name_here>
   Memcheck:Leak
   match-leak-kinds: reachable
   fun:malloc
   fun:copy_word_list
   obj:/usr/bin/bash
   obj:/usr/bin/bash
   fun:execute_command_internal
   fun:execute_command
   fun:reader_loop
   fun:main
}
{
   <insert_a_suppression_name_here>
   Memcheck:Leak
   match-leak-kinds: reachable
   fun:malloc
   fun:alloc_word_desc
   obj:/usr/bin/bash
   obj:/usr/bin/bash
   obj:/usr/bin/bash
   fun:execute_command_internal
   fun:execute_command
   fun:reader_loop
   fun:main
}
{
   <insert_a_suppression_name_here>
   Memcheck:Leak
   match-leak-kinds: reachable
   fun:malloc
   fun:make_word_list
   obj:/usr/bin/bash
   obj:/usr/bin/bash
   obj:/usr/bin/bash
   fun:execute_command_internal
   fun:execute_command
   fun:reader_loop
   fun:main
}
{
   <insert_a_suppression_name_here>
   Memcheck:Leak
   match-leak-kinds: reachable
   fun:malloc
   fun:alloc_word_desc
   obj:/usr/bin/bash
   obj:/usr/bin/bash
   obj:/usr/bin/bash
   obj:/usr/bin/bash
   fun:execute_command_internal
   fun:execute_command
   fun:reader_loop
   fun:main
}
{
   <insert_a_suppression_name_here>
   Memcheck:Leak
   match-leak-kinds: reachable
   fun:malloc
   fun:begin_unwind_frame
   fun:execute_command
   fun:reader_loop
   fun:main
}
{
   <insert_a_suppression_name_here>
   Memcheck:Leak
   match-leak-kinds: reachable
   fun:malloc
   fun:execute_command
   fun:reader_loop
   fun:main
}
{
   <insert_a_suppression_name_here>
   Memcheck:Leak
   match-leak-kinds: reachable
   fun:malloc
   fun:begin_unwind_frame
   obj:/usr/bin/bash
   fun:execute_command_internal
   fun:execute_command
   fun:reader_loop
   fun:main
}
{
   <insert_a_suppression_name_here>
   Memcheck:Leak
   match-leak-kinds: reachable
   fun:malloc
   fun:hash_insert
   obj:/usr/bin/bash
   fun:set_pipestatus_array
   obj:/usr/bin/bash
   fun:execute_command_internal
   fun:execute_command
   fun:reader_loop
   fun:main
}
{
   <insert_a_suppression_name_here>
   Memcheck:Leak
   match-leak-kinds: reachable
   fun:malloc
   fun:array_create
   fun:set_pipestatus_array
   obj:/usr/bin/bash
   fun:execute_command_internal
   fun:execute_command
   fun:reader_loop
   fun:main
}
{
   <insert_a_suppression_name_here>
   Memcheck:Leak
   match-leak-kinds: reachable
   fun:malloc
   obj:/usr/bin/bash
   obj:/usr/bin/bash
   fun:print_simple_command
   obj:/usr/bin/bash
   fun:execute_command_internal
   fun:execute_command
   fun:reader_loop
   fun:main
}
{
   <insert_a_suppression_name_here>
   Memcheck:Leak
   match-leak-kinds: reachable
   fun:malloc
   obj:/usr/bin/bash
   fun:yyparse
   fun:parse_command
   fun:read_command
   fun:reader_loop
   fun:main
}
{
   <insert_a_suppression_name_here>
   Memcheck:Leak
   match-leak-kinds: reachable
   fun:malloc
   fun:new_composite_name
   fun:setlocale
   fun:setlocale
   obj:/usr/bin/echo
   fun:(below main)
}
{
   <insert_a_suppression_name_here>
   Memcheck:Leak
   match-leak-kinds: reachable
   fun:malloc
   fun:strdup
   fun:__textdomain
   fun:textdomain
   obj:/usr/bin/echo
   fun:(below main)
}
{
   <insert_a_suppression_name_here>
   Memcheck:Leak
   match-leak-kinds: reachable
   fun:malloc
   fun:set_binding_values.part.0
   fun:set_binding_values
   fun:bindtextdomain
   obj:/usr/bin/echo
   fun:(below main)
}
{
   <insert_a_suppression_name_here>
   Memcheck:Leak
   match-leak-kinds: reachable
   fun:malloc
   fun:_nl_make_l10nflist
   fun:_nl_make_l10nflist
   fun:_nl_make_l10nflist
   fun:_nl_make_l10nflist
   fun:_nl_find_locale
   fun:setlocale
   fun:setlocale
   obj:/usr/bin/echo
   fun:(below main)
}
{
   <insert_a_suppression_name_here>
   Memcheck:Leak
   match-leak-kinds: reachable
   fun:malloc
   fun:_nl_make_l10nflist
   fun:_nl_make_l10nflist
   fun:_nl_find_locale
   fun:setlocale
   fun:setlocale
   obj:/usr/bin/echo
   fun:(below main)
}
{
   <insert_a_suppression_name_here>
   Memcheck:Leak
   match-leak-kinds: reachable
   fun:malloc
   fun:strndup
   fun:_nl_find_locale
   fun:setlocale
   fun:setlocale
   obj:/usr/bin/echo
   fun:(below main)
}
{
   <insert_a_suppression_name_here>
   Memcheck:Leak
   match-leak-kinds: reachable
   fun:malloc
   fun:_nl_make_l10nflist
   fun:_nl_make_l10nflist
   fun:_nl_make_l10nflist
   fun:_nl_find_locale
   fun:setlocale
   fun:setlocale
   obj:/usr/bin/echo
   fun:(below main)
}
{
   <insert_a_suppression_name_here>
   Memcheck:Leak
   match-leak-kinds: reachable
   fun:malloc
   fun:strdup
   fun:setlocale
   fun:setlocale
   obj:/usr/bin/echo
   fun:(below main)
}
{
   <insert_a_suppression_name_here>
   Memcheck:Leak
   match-leak-kinds: reachable
   fun:malloc
   fun:_nl_make_l10nflist
   fun:_nl_find_locale
   fun:setlocale
   fun:setlocale
   obj:/usr/bin/echo
   fun:(below main)
}
{
   <insert_a_suppression_name_here>
   Memcheck:Leak
   match-leak-kinds: reachable
   fun:malloc
   fun:extend_alias_table
   fun:read_alias_file
   fun:_nl_expand_alias
   fun:_nl_find_locale
   fun:setlocale
   fun:setlocale
   obj:/usr/bin/echo
   fun:(below main)
}
{
   <insert_a_suppression_name_here>
   Memcheck:Leak
   match-leak-kinds: reachable
   fun:realloc
   fun:read_alias_file
   fun:_nl_expand_alias
   fun:_nl_find_locale
   fun:setlocale
   fun:setlocale
   obj:/usr/bin/echo
   fun:(below main)
}
{
   <insert_a_suppression_name_here>
   Memcheck:Leak
   match-leak-kinds: reachable
   fun:malloc
   fun:_nl_intern_locale_data
   fun:_nl_load_locale
   fun:_nl_find_locale
   fun:setlocale
   fun:setlocale
   obj:/usr/bin/echo
   fun:(below main)
}
{
   <insert_a_suppression_name_here>
   Memcheck:Leak
   match-leak-kinds: reachable
   fun:malloc
   fun:_IO_file_doallocate
   fun:_IO_doallocbuf
   fun:_IO_file_overflow@@GLIBC_2.2.5
   fun:_IO_new_file_xsputn
   fun:_IO_file_xsputn@@GLIBC_2.2.5
   fun:fputs_unlocked
   obj:/usr/bin/echo
   fun:(below main)
}
{
   <insert_a_suppression_name_here>
   Memcheck:Leak
   match-leak-kinds: reachable
   fun:malloc
   fun:new_composite_name
   fun:setlocale
   fun:setlocale
   obj:/usr/bin/ls
   fun:(below main)
}
{
   <insert_a_suppression_name_here>
   Memcheck:Leak
   match-leak-kinds: reachable
   fun:malloc
   fun:strdup
   fun:__textdomain
   fun:textdomain
   obj:/usr/bin/ls
   fun:(below main)
}
{
   <insert_a_suppression_name_here>
   Memcheck:Leak
   match-leak-kinds: reachable
   fun:malloc
   fun:set_binding_values.part.0
   fun:set_binding_values
   fun:bindtextdomain
   obj:/usr/bin/ls
   fun:(below main)
}
{
   <insert_a_suppression_name_here>
   Memcheck:Leak
   match-leak-kinds: reachable
   fun:malloc
   fun:_nl_make_l10nflist
   fun:_nl_make_l10nflist
   fun:_nl_make_l10nflist
   fun:_nl_make_l10nflist
   fun:_nl_find_locale
   fun:setlocale
   fun:setlocale
   obj:/usr/bin/ls
   fun:(below main)
}
{
   <insert_a_suppression_name_here>
   Memcheck:Leak
   match-leak-kinds: reachable
   fun:malloc
   fun:_nl_make_l10nflist
   fun:_nl_make_l10nflist
   fun:_nl_find_locale
   fun:setlocale
   fun:setlocale
   obj:/usr/bin/ls
   fun:(below main)
}
{
   <insert_a_suppression_name_here>
   Memcheck:Leak
   match-leak-kinds: reachable
   fun:malloc
   fun:strndup
   fun:_nl_find_locale
   fun:setlocale
   fun:setlocale
   obj:/usr/bin/ls
   fun:(below main)
}
{
   <insert_a_suppression_name_here>
   Memcheck:Leak
   match-leak-kinds: reachable
   fun:malloc
   fun:_nl_make_l10nflist
   fun:_nl_make_l10nflist
   fun:_nl_make_l10nflist
   fun:_nl_find_locale
   fun:setlocale
   fun:setlocale
   obj:/usr/bin/ls
   fun:(below main)
}
{
   <insert_a_suppression_name_here>
   Memcheck:Leak
   match-leak-kinds: reachable
   fun:malloc
   fun:strdup
   fun:setlocale
   fun:setlocale
   obj:/usr/bin/ls
   fun:(below main)
}
{
   <insert_a_suppression_name_here>
   Memcheck:Leak
   match-leak-kinds: reachable
   fun:malloc
   fun:_nl_make_l10nflist
   fun:_nl_find_locale
   fun:setlocale
   fun:setlocale
   obj:/usr/bin/ls
   fun:(below main)
}
{
   <insert_a_suppression_name_here>
   Memcheck:Leak
   match-leak-kinds: reachable
   fun:malloc
   fun:extend_alias_table
   fun:read_alias_file
   fun:_nl_expand_alias
   fun:_nl_find_locale
   fun:setlocale
   fun:setlocale
   obj:/usr/bin/ls
   fun:(below main)
}
{
   <insert_a_suppression_name_here>
   Memcheck:Leak
   match-leak-kinds: reachable
   fun:realloc
   fun:read_alias_file
   fun:_nl_expand_alias
   fun:_nl_find_locale
   fun:setlocale
   fun:setlocale
   obj:/usr/bin/ls
   fun:(below main)
}
{
   <insert_a_suppression_name_here>
   Memcheck:Leak
   match-leak-kinds: reachable
   fun:malloc
   fun:_nl_intern_locale_data
   fun:_nl_load_locale
   fun:_nl_find_locale
   fun:setlocale
   fun:setlocale
   obj:/usr/bin/ls
   fun:(below main)
}
{
   <insert_a_suppression_name_here>
   Memcheck:Leak
   match-leak-kinds: reachable
   fun:malloc
   fun:_IO_file_doallocate
   fun:_IO_doallocbuf
   fun:_IO_file_overflow@@GLIBC_2.2.5
   fun:_IO_new_file_xsputn
   fun:_IO_file_xsputn@@GLIBC_2.2.5
   fun:fwrite_unlocked
   obj:/usr/bin/ls
   obj:/usr/bin/ls
   obj:/usr/bin/ls
   obj:/usr/bin/ls
   obj:/usr/bin/ls
   fun:(below main)
}
{
   <insert_a_suppression_name_here>
   Memcheck:Leak
   match-leak-kinds: reachable
   fun:malloc
   fun:strdup
   fun:tzset_internal
   fun:__tz_convert
   obj:/usr/bin/ls
   obj:/usr/bin/ls
   obj:/usr/bin/ls
   obj:/usr/bin/ls
   fun:(below main)
}
{
   <insert_a_suppression_name_here>
   Memcheck:Leak
   match-leak-kinds: reachable
   fun:malloc
   fun:__tzstring_len
   fun:__tzstring
   fun:__tzfile_read
   fun:tzset_internal
   fun:__tz_convert
   obj:/usr/bin/ls
   obj:/usr/bin/ls
   obj:/usr/bin/ls
   obj:/usr/bin/ls
   fun:(below main)
}
{
   <insert_a_suppression_name_here>
   Memcheck:Leak
   match-leak-kinds: reachable
   fun:calloc
   fun:__wcsmbs_load_conv
   fun:get_gconv_fcts
   fun:__mbsrtowcs_l
   fun:mbstowcs
   obj:/usr/bin/ls
   obj:/usr/bin/ls
   fun:(below main)
}
{
   <insert_a_suppression_name_here>
   Memcheck:Leak
   match-leak-kinds: reachable
   fun:malloc
   fun:_nl_make_l10nflist
   fun:_nl_make_l10nflist
   fun:_nl_make_l10nflist
   fun:_nl_find_domain
   fun:__dcigettext
   obj:/usr/bin/ls
   fun:(below main)
}
{
   <insert_a_suppression_name_here>
   Memcheck:Leak
   match-leak-kinds: reachable
   fun:malloc
   fun:_nl_make_l10nflist
   fun:_nl_make_l10nflist
   fun:_nl_make_l10nflist
   fun:_nl_find_domain
   fun:__dcigettext
   obj:/usr/bin/ls
   obj:/usr/bin/ls
   fun:(below main)
}
{
   <insert_a_suppression_name_here>
   Memcheck:Leak
   match-leak-kinds: reachable
   fun:malloc
   fun:_nl_make_l10nflist
   fun:_nl_find_domain
   fun:__dcigettext
   obj:/usr/bin/ls
   fun:(below main)
}
{
   <insert_a_suppression_name_here>
   Memcheck:Leak
   match-leak-kinds: reachable
   fun:malloc
   fun:_nl_make_l10nflist
   fun:_nl_make_l10nflist
   fun:_nl_make_l10nflist
   fun:_nl_make_l10nflist
   fun:_nl_find_domain
   fun:__dcigettext
   obj:/usr/bin/ls
   obj:/usr/bin/ls
   fun:(below main)
}
{
   <insert_a_suppression_name_here>
   Memcheck:Leak
   match-leak-kinds: reachable
   fun:malloc
   fun:_nl_make_l10nflist
   fun:_nl_find_domain
   fun:__dcigettext
   obj:/usr/bin/ls
   obj:/usr/bin/ls
   fun:(below main)
}
{
   <insert_a_suppression_name_here>
   Memcheck:Leak
   match-leak-kinds: reachable
   fun:malloc
   fun:__nss_action_allocate
   fun:__nss_action_parse
   fun:nss_database_select_default
   fun:nss_database_reload
   fun:nss_database_check_reload_and_get
   fun:__nss_passwd_lookup2
   fun:getpwuid_r@@GLIBC_2.2.5
   fun:getpwuid
   obj:/usr/bin/ls
   obj:/usr/bin/ls
   obj:/usr/bin/ls
   obj:/usr/bin/ls
   obj:/usr/bin/ls
}
{
   <insert_a_suppression_name_here>
   Memcheck:Leak
   match-leak-kinds: reachable
   fun:malloc
   fun:_nl_make_l10nflist
   fun:_nl_make_l10nflist
   fun:_nl_find_domain
   fun:__dcigettext
   obj:/usr/bin/ls
   obj:/usr/bin/ls
   fun:(below main)
}
{
   <insert_a_suppression_name_here>
   Memcheck:Leak
   match-leak-kinds: reachable
   fun:malloc
   fun:_nl_make_l10nflist
   fun:_nl_make_l10nflist
   fun:_nl_find_domain
   fun:__dcigettext
   obj:/usr/bin/ls
   fun:(below main)
}
{
   <insert_a_suppression_name_here>
   Memcheck:Leak
   match-leak-kinds: reachable
   fun:malloc
   fun:__gconv_lookup_cache
   fun:__gconv_find_transform
   fun:__wcsmbs_getfct
   fun:__wcsmbs_load_conv
   fun:get_gconv_fcts
   fun:__mbsrtowcs_l
   fun:mbstowcs
   obj:/usr/bin/ls
   obj:/usr/bin/ls
   fun:(below main)
}
{
   <insert_a_suppression_name_here>
   Memcheck:Leak
   match-leak-kinds: reachable
   fun:malloc
   fun:global_state_allocate
   fun:__libc_allocate_once_slow
   fun:allocate_once
   fun:nss_database_state_get
   fun:__nss_database_get
   fun:__nss_passwd_lookup2
   fun:getpwuid_r@@GLIBC_2.2.5
   fun:getpwuid
   obj:/usr/bin/ls
   obj:/usr/bin/ls
   obj:/usr/bin/ls
   obj:/usr/bin/ls
   obj:/usr/bin/ls
}
{
   <insert_a_suppression_name_here>
   Memcheck:Leak
   match-leak-kinds: reachable
   fun:malloc
   fun:__nss_action_allocate
   fun:__nss_action_parse
   fun:process_line
   fun:nss_database_reload_1
   fun:nss_database_reload
   fun:nss_database_check_reload_and_get
   fun:__nss_passwd_lookup2
   fun:getpwuid_r@@GLIBC_2.2.5
   fun:getpwuid
   obj:/usr/bin/ls
   obj:/usr/bin/ls
   obj:/usr/bin/ls
   obj:/usr/bin/ls
   obj:/usr/bin/ls
}
{
   <insert_a_suppression_name_here>
   Memcheck:Leak
   match-leak-kinds: reachable
   fun:malloc
   fun:__nss_module_allocate
   fun:nss_action_parse
   fun:__nss_action_parse
   fun:nss_database_select_default
   fun:nss_database_reload
   fun:nss_database_check_reload_and_get
   fun:__nss_passwd_lookup2
   fun:getpwuid_r@@GLIBC_2.2.5
   fun:getpwuid
   obj:/usr/bin/ls
   obj:/usr/bin/ls
   obj:/usr/bin/ls
   obj:/usr/bin/ls
   obj:/usr/bin/ls
}
{
   <insert_a_suppression_name_here>
   Memcheck:Leak
   match-leak-kinds: reachable
   fun:malloc
   fun:getpwuid
   obj:/usr/bin/ls
   obj:/usr/bin/ls
   obj:/usr/bin/ls
   obj:/usr/bin/ls
   obj:/usr/bin/ls
   fun:(below main)
}
{
   <insert_a_suppression_name_here>
   Memcheck:Leak
   match-leak-kinds: reachable
   fun:malloc
   fun:getgrgid
   obj:/usr/bin/ls
   obj:/usr/bin/ls
   obj:/usr/bin/ls
   obj:/usr/bin/ls
   fun:(below main)
}
{
   <insert_a_suppression_name_here>
   Memcheck:Leak
   match-leak-kinds: reachable
   fun:malloc
   fun:__tzfile_read
   fun:tzset_internal
   fun:__tz_convert
   obj:/usr/bin/ls
   obj:/usr/bin/ls
   obj:/usr/bin/ls
   obj:/usr/bin/ls
   fun:(below main)
}
{
   <insert_a_suppression_name_here>
   Memcheck:Leak
   match-leak-kinds: reachable
   fun:malloc
   fun:__nss_module_allocate
   fun:nss_action_parse
   fun:__nss_action_parse
   fun:process_line
   fun:nss_database_reload_1
   fun:nss_database_reload
   fun:nss_database_check_reload_and_get
   fun:__nss_passwd_lookup2
   fun:getpwuid_r@@GLIBC_2.2.5
   fun:getpwuid
   obj:/usr/bin/ls
   obj:/usr/bin/ls
   obj:/usr/bin/ls
   obj:/usr/bin/ls
   obj:/usr/bin/ls
}
{
   <insert_a_suppression_name_here>
   Memcheck:Leak
   match-leak-kinds: reachable
   fun:malloc
   fun:_IO_file_doallocate
   fun:_IO_doallocbuf
   fun:_IO_file_overflow@@GLIBC_2.2.5
   fun:_IO_new_file_xsputn
   fun:_IO_file_xsputn@@GLIBC_2.2.5
   fun:fputs_unlocked
   obj:/usr/bin/ls
   obj:/usr/bin/ls
   fun:(below main)
}
{
   <insert_a_suppression_name_here>
   Memcheck:Leak
   match-leak-kinds: reachable
   fun:malloc
   fun:new_composite_name
   fun:setlocale
   fun:setlocale
   obj:/usr/bin/cat
   fun:(below main)
}
{
   <insert_a_suppression_name_here>
   Memcheck:Leak
   match-leak-kinds: reachable
   fun:malloc
   fun:strdup
   fun:__textdomain
   fun:textdomain
   obj:/usr/bin/cat
   fun:(below main)
}
{
   <insert_a_suppression_name_here>
   Memcheck:Leak
   match-leak-kinds: reachable
   fun:malloc
   fun:set_binding_values.part.0
   fun:set_binding_values
   fun:bindtextdomain
   obj:/usr/bin/cat
   fun:(below main)
}
{
   <insert_a_suppression_name_here>
   Memcheck:Leak
   match-leak-kinds: reachable
   fun:malloc
   fun:_nl_make_l10nflist
   fun:_nl_make_l10nflist
   fun:_nl_make_l10nflist
   fun:_nl_make_l10nflist
   fun:_nl_find_locale
   fun:setlocale
   fun:setlocale
   obj:/usr/bin/cat
   fun:(below main)
}
{
   <insert_a_suppression_name_here>
   Memcheck:Leak
   match-leak-kinds: reachable
   fun:malloc
   fun:_nl_make_l10nflist
   fun:_nl_make_l10nflist
   fun:_nl_find_locale
   fun:setlocale
   fun:setlocale
   obj:/usr/bin/cat
   fun:(below main)
}
{
   <insert_a_suppression_name_here>
   Memcheck:Leak
   match-leak-kinds: reachable
   fun:malloc
   fun:strndup
   fun:_nl_find_locale
   fun:setlocale
   fun:setlocale
   obj:/usr/bin/cat
   fun:(below main)
}
{
   <insert_a_suppression_name_here>
   Memcheck:Leak
   match-leak-kinds: reachable
   fun:malloc
   fun:_nl_make_l10nflist
   fun:_nl_make_l10nflist
   fun:_nl_make_l10nflist
   fun:_nl_find_locale
   fun:setlocale
   fun:setlocale
   obj:/usr/bin/cat
   fun:(below main)
}
{
   <insert_a_suppression_name_here>
   Memcheck:Leak
   match-leak-kinds: reachable
   fun:malloc
   fun:strdup
   fun:setlocale
   fun:setlocale
   obj:/usr/bin/cat
   fun:(below main)
}
{
   <insert_a_suppression_name_here>
   Memcheck:Leak
   match-leak-kinds: reachable
   fun:malloc
   fun:_nl_make_l10nflist
   fun:_nl_find_locale
   fun:setlocale
   fun:setlocale
   obj:/usr/bin/cat
   fun:(below main)
}
{
   <insert_a_suppression_name_here>
   Memcheck:Leak
   match-leak-kinds: reachable
   fun:malloc
   fun:extend_alias_table
   fun:read_alias_file
   fun:_nl_expand_alias
   fun:_nl_find_locale
   fun:setlocale
   fun:setlocale
   obj:/usr/bin/cat
   fun:(below main)
}
{
   <insert_a_suppression_name_here>
   Memcheck:Leak
   match-leak-kinds: reachable
   fun:realloc
   fun:read_alias_file
   fun:_nl_expand_alias
   fun:_nl_find_locale
   fun:setlocale
   fun:setlocale
   obj:/usr/bin/cat
   fun:(below main)
}
{
   <insert_a_suppression_name_here>
   Memcheck:Leak
   match-leak-kinds: reachable
   fun:malloc
   fun:_nl_intern_locale_data
   fun:_nl_load_locale
   fun:_nl_find_locale
   fun:setlocale
   fun:setlocale
   obj:/usr/bin/cat
   fun:(below main)
}
{
   <insert_a_suppression_name_here>
   Memcheck:Leak
   match-leak-kinds: reachable
   fun:malloc
   fun:new_composite_name
   fun:setlocale
   fun:setlocale
   obj:/usr/bin/yes
   fun:(below main)
}
{
   <insert_a_suppression_name_here>
   Memcheck:Leak
   match-leak-kinds: reachable
   fun:malloc
   fun:strdup
   fun:__textdomain
   fun:textdomain
   obj:/usr/bin/yes
   fun:(below main)
}
{
   <insert_a_suppression_name_here>
   Memcheck:Leak
   match-leak-kinds: reachable
   fun:malloc
   fun:set_binding_values.part.0
   fun:set_binding_values
   fun:bindtextdomain
   obj:/usr/bin/yes
   fun:(below main)
}
{
   <insert_a_suppression_name_here>
   Memcheck:Leak
   match-leak-kinds: reachable
   fun:malloc
   fun:_nl_make_l10nflist
   fun:_nl_make_l10nflist
   fun:_nl_make_l10nflist
   fun:_nl_make_l10nflist
   fun:_nl_find_locale
   fun:setlocale
   fun:setlocale
   obj:/usr/bin/yes
   fun:(below main)
}
{
   <insert_a_suppression_name_here>
   Memcheck:Leak
   match-leak-kinds: reachable
   fun:malloc
   fun:_nl_make_l10nflist
   fun:_nl_make_l10nflist
   fun:_nl_find_locale
   fun:setlocale
   fun:setlocale
   obj:/usr/bin/yes
   fun:(below main)
}
{
   <insert_a_suppression_name_here>
   Memcheck:Leak
   match-leak-kinds: reachable
   fun:malloc
   fun:strndup
   fun:_nl_find_locale
   fun:setlocale
   fun:setlocale
   obj:/usr/bin/yes
   fun:(below main)
}
{
   <insert_a_suppression_name_here>
   Memcheck:Leak
   match-leak-kinds: reachable
   fun:malloc
   fun:_nl_make_l10nflist
   fun:_nl_make_l10nflist
   fun:_nl_make_l10nflist
   fun:_nl_find_locale
   fun:setlocale
   fun:setlocale
   obj:/usr/bin/yes
   fun:(below main)
}
{
   <insert_a_suppression_name_here>
   Memcheck:Leak
   match-leak-kinds: reachable
   fun:malloc
   fun:strdup
   fun:setlocale
   fun:setlocale
   obj:/usr/bin/yes
   fun:(below main)
}
{
   <insert_a_suppression_name_here>
   Memcheck:Leak
   match-leak-kinds: reachable
   fun:malloc
   fun:_nl_make_l10nflist
   fun:_nl_find_locale
   fun:setlocale
   fun:setlocale
   obj:/usr/bin/yes
   fun:(below main)
}
{
   <insert_a_suppression_name_here>
   Memcheck:Leak
   match-leak-kinds: reachable
   fun:malloc
   fun:extend_alias_table
   fun:read_alias_file
   fun:_nl_expand_alias
   fun:_nl_find_locale
   fun:setlocale
   fun:setlocale
   obj:/usr/bin/yes
   fun:(below main)
}
{
   <insert_a_suppression_name_here>
   Memcheck:Leak
   match-leak-kinds: reachable
   fun:realloc
   fun:read_alias_file
   fun:_nl_expand_alias
   fun:_nl_find_locale
   fun:setlocale
   fun:setlocale
   obj:/usr/bin/yes
   fun:(below main)
}
{
   <insert_a_suppression_name_here>
   Memcheck:Leak
   match-leak-kinds: reachable
   fun:malloc
   fun:_nl_intern_locale_data
   fun:_nl_load_locale
   fun:_nl_find_locale
   fun:setlocale
   fun:setlocale
   obj:/usr/bin/yes
   fun:(below main)
}
{
   <insert_a_suppression_name_here>
   Memcheck:Leak
   match-leak-kinds: reachable
   fun:malloc
   fun:xmalloc
   fun:rl_make_bare_keymap
   fun:rl_generic_bind
   fun:rl_parse_and_bind
   obj:/usr/lib/x86_64-linux-gnu/libreadline.so.8.1
   fun:rl_initialize
   fun:readline
   fun:read_user_input
   fun:run_interactive_mode
   fun:main
}
{
   <insert_a_suppression_name_here>
   Memcheck:Leak
   match-leak-kinds: reachable
   fun:malloc
   fun:xmalloc
   fun:rl_make_bare_keymap
   fun:rl_generic_bind
   fun:rl_bind_keyseq_if_unbound_in_map
   obj:/usr/lib/x86_64-linux-gnu/libreadline.so.8.1
   fun:rl_initialize
   fun:readline
   fun:read_user_input
   fun:run_interactive_mode
   fun:main
}
{
   <insert_a_suppression_name_here>
   Memcheck:Leak
   match-leak-kinds: reachable
   fun:malloc
   fun:xmalloc
   fun:rl_make_bare_keymap
   fun:rl_generic_bind
   fun:rl_bind_keyseq_if_unbound_in_map
   obj:/usr/lib/x86_64-linux-gnu/libreadline.so.8.1
   fun:rl_initialize
   fun:readline
   fun:read_user_input
   fun:run_interactive_mode
   fun:main
}
{
   <insert_a_suppression_name_here>
   Memcheck:Leak
   match-leak-kinds: reachable
   fun:malloc
   fun:xmalloc
   fun:rl_make_bare_keymap
   fun:rl_generic_bind
   fun:rl_bind_keyseq_if_unbound_in_map
   fun:rl_initialize
   fun:readline
   fun:read_user_input
   fun:run_interactive_mode
   fun:main
}
{
   <insert_a_suppression_name_here>
   Memcheck:Leak
   match-leak-kinds: reachable
   fun:malloc
   fun:xmalloc
   fun:rl_make_bare_keymap
   fun:rl_generic_bind
   fun:rl_bind_keyseq_if_unbound_in_map
   fun:rl_initialize
   fun:readline
   fun:read_user_input
   fun:run_interactive_mode
   fun:main
}
{
   <insert_a_suppression_name_here>
   Memcheck:Leak
   match-leak-kinds: reachable
   fun:malloc
   fun:xmalloc
   fun:rl_make_bare_keymap
   fun:rl_generic_bind
   fun:rl_bind_keyseq_if_unbound_in_map
   obj:/usr/lib/x86_64-linux-gnu/libreadline.so.8.1
   fun:rl_initialize
   fun:readline
   fun:read_user_input
   fun:run_interactive_mode
   fun:main
}
{
   <insert_a_suppression_name_here>
   Memcheck:Leak
   match-leak-kinds: reachable
   fun:malloc
   fun:xmalloc
   fun:rl_make_bare_keymap
   fun:rl_generic_bind
   fun:rl_bind_keyseq_if_unbound_in_map
   obj:/usr/lib/x86_64-linux-gnu/libreadline.so.8.1
   fun:rl_initialize
   fun:readline
   fun:read_user_input
   fun:run_interactive_mode
   fun:main
}
{
   <insert_a_suppression_name_here>
   Memcheck:Leak
   match-leak-kinds: reachable
   fun:malloc
   fun:xmalloc
   fun:rl_make_bare_keymap
   fun:rl_generic_bind
   fun:rl_bind_keyseq_if_unbound_in_map
   obj:/usr/lib/x86_64-linux-gnu/libreadline.so.8.1
   fun:_rl_init_terminal_io
   fun:rl_initialize
   fun:readline
   fun:read_user_input
   fun:run_interactive_mode
   fun:main
}
{
   <insert_a_suppression_name_here>
   Memcheck:Leak
   match-leak-kinds: reachable
   fun:malloc
   fun:xmalloc
   fun:rl_make_bare_keymap
   fun:rl_generic_bind
   fun:rl_bind_keyseq_if_unbound_in_map
   obj:/usr/lib/x86_64-linux-gnu/libreadline.so.8.1
   fun:_rl_init_terminal_io
   fun:rl_initialize
   fun:readline
   fun:read_user_input
   fun:run_interactive_mode
   fun:main
}
{
   <insert_a_suppression_name_here>
   Memcheck:Leak
   match-leak-kinds: reachable
   fun:malloc
   fun:xmalloc
   fun:rl_make_bare_keymap
   fun:rl_generic_bind
   fun:rl_bind_keyseq_if_unbound_in_map
   obj:/usr/lib/x86_64-linux-gnu/libreadline.so.8.1
   fun:_rl_init_terminal_io
   fun:rl_initialize
   fun:readline
   fun:read_user_input
   fun:run_interactive_mode
   fun:main
}
{
   <insert_a_suppression_name_here>
   Memcheck:Leak
   match-leak-kinds: reachable
   fun:malloc
   fun:xmalloc
   fun:rl_make_bare_keymap
   fun:rl_generic_bind
   fun:rl_bind_keyseq_if_unbound_in_map
   obj:/usr/lib/x86_64-linux-gnu/libreadline.so.8.1
   fun:_rl_init_terminal_io
   fun:rl_initialize
   fun:readline
   fun:read_user_input
   fun:run_interactive_mode
   fun:main
}
{
   <insert_a_suppression_name_here>
   Memcheck:Leak
   match-leak-kinds: reachable
   fun:malloc
   fun:xmalloc
   fun:rl_make_bare_keymap
   fun:rl_generic_bind
   fun:rl_bind_keyseq_if_unbound_in_map
   obj:/usr/lib/x86_64-linux-gnu/libreadline.so.8.1
   fun:_rl_init_terminal_io
   fun:rl_initialize
   fun:readline
   fun:read_user_input
   fun:run_interactive_mode
   fun:main
}
{
   <insert_a_suppression_name_here>
   Memcheck:Leak
   match-leak-kinds: reachable
   fun:calloc
   obj:/usr/lib/x86_64-linux-gnu/libtinfo.so.6.3
   fun:_nc_find_type_entry
   fun:tgetstr_sp
   fun:_rl_init_terminal_io
   fun:rl_initialize
   fun:readline
   fun:read_user_input
   fun:run_interactive_mode
   fun:main
}
{
   <insert_a_suppression_name_here>
   Memcheck:Leak
   match-leak-kinds: reachable
   fun:malloc
   fun:xmalloc
   fun:_rl_init_terminal_io
   fun:rl_initialize
   fun:readline
   fun:read_user_input
   fun:run_interactive_mode
   fun:main
}
{
   <insert_a_suppression_name_here>
   Memcheck:Leak
   match-leak-kinds: reachable
   fun:malloc
   fun:xmalloc
   fun:add_history
   fun:read_user_input
   fun:run_interactive_mode
   fun:main
}
{
   <insert_a_suppression_name_here>
   Memcheck:Leak
   match-leak-kinds: reachable
   fun:malloc
   obj:/usr/lib/x86_64-linux-gnu/libtinfo.so.6.3
   fun:_nc_setupterm
   fun:tgetent_sp
   fun:_rl_init_terminal_io
   fun:rl_initialize
   fun:readline
   fun:read_user_input
   fun:run_interactive_mode
   fun:main
}
{
   <insert_a_suppression_name_here>
   Memcheck:Leak
   match-leak-kinds: reachable
   fun:realloc
   fun:_nc_doalloc
   fun:_nc_read_termtype
   obj:/usr/lib/x86_64-linux-gnu/libtinfo.so.6.3
   obj:/usr/lib/x86_64-linux-gnu/libtinfo.so.6.3
   fun:_nc_read_entry2
   obj:/usr/lib/x86_64-linux-gnu/libtinfo.so.6.3
   fun:_nc_setupterm
   fun:tgetent_sp
   fun:_rl_init_terminal_io
   fun:rl_initialize
   fun:readline
}
{
   <insert_a_suppression_name_here>
   Memcheck:Leak
   match-leak-kinds: reachable
   fun:malloc
   fun:xmalloc
   fun:rl_add_funmap_entry
   fun:rl_initialize_funmap
   fun:rl_initialize
   fun:readline
   fun:read_user_input
   fun:run_interactive_mode
   fun:main
}
{
   <insert_a_suppression_name_here>
   Memcheck:Leak
   match-leak-kinds: reachable
   fun:malloc
   fun:xmalloc
   fun:_rl_init_terminal_io
   fun:rl_initialize
   fun:readline
   fun:read_user_input
   fun:run_interactive_mode
   fun:main
}
{
   <insert_a_suppression_name_here>
   Memcheck:Leak
   match-leak-kinds: reachable
   fun:malloc
   fun:_nc_read_termtype
   obj:/usr/lib/x86_64-linux-gnu/libtinfo.so.6.3
   obj:/usr/lib/x86_64-linux-gnu/libtinfo.so.6.3
   fun:_nc_read_entry2
   obj:/usr/lib/x86_64-linux-gnu/libtinfo.so.6.3
   fun:_nc_setupterm
   fun:tgetent_sp
   fun:_rl_init_terminal_io
   fun:rl_initialize
   fun:readline
   fun:read_user_input
}
{
   <insert_a_suppression_name_here>
   Memcheck:Leak
   match-leak-kinds: reachable
   fun:malloc
   fun:xrealloc
   obj:/usr/lib/x86_64-linux-gnu/libreadline.so.8.1
   obj:/usr/lib/x86_64-linux-gnu/libreadline.so.8.1
   fun:rl_redisplay
   fun:readline_internal_setup
   fun:readline
   fun:read_user_input
   fun:run_interactive_mode
   fun:main
}
{
   <insert_a_suppression_name_here>
   Memcheck:Leak
   match-leak-kinds: reachable
   fun:malloc
   fun:xrealloc
   obj:/usr/lib/x86_64-linux-gnu/libreadline.so.8.1
   obj:/usr/lib/x86_64-linux-gnu/libreadline.so.8.1
   fun:rl_redisplay
   fun:readline_internal_setup
   fun:readline
   fun:read_user_input
   fun:run_interactive_mode
   fun:main
}
{
   <insert_a_suppression_name_here>
   Memcheck:Leak
   match-leak-kinds: reachable
   fun:malloc
   fun:xrealloc
   obj:/usr/lib/x86_64-linux-gnu/libreadline.so.8.1
   obj:/usr/lib/x86_64-linux-gnu/libreadline.so.8.1
   fun:rl_redisplay
   fun:readline_internal_setup
   fun:readline
   fun:read_user_input
   fun:run_interactive_mode
   fun:main
}
{
   <insert_a_suppression_name_here>
   Memcheck:Leak
   match-leak-kinds: reachable
   fun:malloc
   fun:xrealloc
   obj:/usr/lib/x86_64-linux-gnu/libreadline.so.8.1
   obj:/usr/lib/x86_64-linux-gnu/libreadline.so.8.1
   fun:rl_redisplay
   fun:readline_internal_setup
   fun:readline
   fun:read_user_input
   fun:run_interactive_mode
   fun:main
}
{
   <insert_a_suppression_name_here>
   Memcheck:Leak
   match-leak-kinds: reachable
   fun:calloc
   fun:_nc_read_termtype
   obj:/usr/lib/x86_64-linux-gnu/libtinfo.so.6.3
   obj:/usr/lib/x86_64-linux-gnu/libtinfo.so.6.3
   fun:_nc_read_entry2
   obj:/usr/lib/x86_64-linux-gnu/libtinfo.so.6.3
   fun:_nc_setupterm
   fun:tgetent_sp
   fun:_rl_init_terminal_io
   fun:rl_initialize
   fun:readline
   fun:read_user_input
}
{
   <insert_a_suppression_name_here>
   Memcheck:Leak
   match-leak-kinds: reachable
   fun:realloc
   fun:xrealloc
   fun:rl_add_funmap_entry
   fun:rl_initialize_funmap
   fun:rl_initialize
   fun:readline
   fun:read_user_input
   fun:run_interactive_mode
   fun:main
}
{
   <insert_a_suppression_name_here>
   Memcheck:Leak
   match-leak-kinds: reachable
   fun:malloc
   fun:xmalloc
   obj:/usr/lib/x86_64-linux-gnu/libreadline.so.8.1
   fun:rl_redisplay
   fun:readline_internal_setup
   fun:readline
   fun:read_user_input
   fun:run_interactive_mode
   fun:main
}
{
   <insert_a_suppression_name_here>
   Memcheck:Leak
   match-leak-kinds: reachable
   fun:malloc
   fun:xmalloc
   obj:/usr/lib/x86_64-linux-gnu/libreadline.so.8.1
   fun:rl_redisplay
   fun:readline_internal_setup
   fun:readline
   fun:read_user_input
   fun:run_interactive_mode
   fun:main
}
{
   <insert_a_suppression_name_here>
   Memcheck:Leak
   match-leak-kinds: reachable
   fun:malloc
   fun:xmalloc
   obj:/usr/lib/x86_64-linux-gnu/libreadline.so.8.1
   fun:rl_redisplay
   fun:readline_internal_setup
   fun:readline
   fun:read_user_input
   fun:run_interactive_mode
   fun:main
}
{
   <insert_a_suppression_name_here>
   Memcheck:Leak
   match-leak-kinds: reachable
   fun:calloc
   fun:_nc_setupterm
   fun:tgetent_sp
   fun:_rl_init_terminal_io
   fun:rl_initialize
   fun:readline
   fun:read_user_input
   fun:run_interactive_mode
   fun:main
}
{
   <insert_a_suppression_name_here>
   Memcheck:Leak
   match-leak-kinds: reachable
   fun:malloc
   fun:xmalloc
   fun:rl_initialize
   fun:readline
   fun:read_user_input
   fun:run_interactive_mode
   fun:main
}
{
   <insert_a_suppression_name_here>
   Memcheck:Leak
   match-leak-kinds: reachable
   fun:calloc
   obj:/usr/lib/x86_64-linux-gnu/libtinfo.so.6.3
   fun:_nc_tiparm
   obj:/usr/lib/x86_64-linux-gnu/libtinfo.so.6.3
   fun:_nc_trim_sgr0
   fun:tgetent_sp
   fun:_rl_init_terminal_io
   fun:rl_initialize
   fun:readline
   fun:read_user_input
   fun:run_interactive_mode
   fun:main
}
{
   <insert_a_suppression_name_here>
   Memcheck:Leak
   match-leak-kinds: reachable
   fun:malloc
   fun:_nc_tparm_analyze
   obj:/usr/lib/x86_64-linux-gnu/libtinfo.so.6.3
   fun:_nc_tiparm
   obj:/usr/lib/x86_64-linux-gnu/libtinfo.so.6.3
   fun:_nc_trim_sgr0
   fun:tgetent_sp
   fun:_rl_init_terminal_io
   fun:rl_initialize
   fun:readline
   fun:read_user_input
   fun:run_interactive_mode
}
{
   <insert_a_suppression_name_here>
   Memcheck:Leak
   match-leak-kinds: reachable
   fun:malloc
   fun:strdup
   obj:/usr/lib/x86_64-linux-gnu/libtinfo.so.6.3
   fun:_nc_tiparm
   obj:/usr/lib/x86_64-linux-gnu/libtinfo.so.6.3
   fun:_nc_trim_sgr0
   fun:tgetent_sp
   fun:_rl_init_terminal_io
   fun:rl_initialize
   fun:readline
   fun:read_user_input
   fun:run_interactive_mode
}
{
   <insert_a_suppression_name_here>
   Memcheck:Leak
   match-leak-kinds: reachable
   fun:malloc
   fun:_nc_first_db
   fun:_nc_read_entry2
   obj:/usr/lib/x86_64-linux-gnu/libtinfo.so.6.3
   fun:_nc_setupterm
   fun:tgetent_sp
   fun:_rl_init_terminal_io
   fun:rl_initialize
   fun:readline
   fun:read_user_input
   fun:run_interactive_mode
   fun:main
}
{
   <insert_a_suppression_name_here>
   Memcheck:Leak
   match-leak-kinds: reachable
   fun:calloc
   fun:_nc_first_db
   fun:_nc_read_entry2
   obj:/usr/lib/x86_64-linux-gnu/libtinfo.so.6.3
   fun:_nc_setupterm
   fun:tgetent_sp
   fun:_rl_init_terminal_io
   fun:rl_initialize
   fun:readline
   fun:read_user_input
   fun:run_interactive_mode
   fun:main
}
{
   <insert_a_suppression_name_here>
   Memcheck:Leak
   match-leak-kinds: reachable
   fun:malloc
   fun:tsearch
   obj:/usr/lib/x86_64-linux-gnu/libtinfo.so.6.3
   fun:_nc_tiparm
   obj:/usr/lib/x86_64-linux-gnu/libtinfo.so.6.3
   fun:_nc_trim_sgr0
   fun:tgetent_sp
   fun:_rl_init_terminal_io
   fun:rl_initialize
   fun:readline
   fun:read_user_input
   fun:run_interactive_mode
}
{
   <insert_a_suppression_name_here>
   Memcheck:Leak
   match-leak-kinds: reachable
   fun:malloc
   fun:_nc_home_terminfo
   fun:_nc_first_db
   fun:_nc_read_entry2
   obj:/usr/lib/x86_64-linux-gnu/libtinfo.so.6.3
   fun:_nc_setupterm
   fun:tgetent_sp
   fun:_rl_init_terminal_io
   fun:rl_initialize
   fun:readline
   fun:read_user_input
   fun:run_interactive_mode
}
{
   <insert_a_suppression_name_here>
   Memcheck:Leak
   match-leak-kinds: reachable
   fun:malloc
   fun:xmalloc
   obj:/usr/lib/x86_64-linux-gnu/libreadline.so.8.1
   fun:rl_parse_and_bind
   obj:/usr/lib/x86_64-linux-gnu/libreadline.so.8.1
   fun:rl_initialize
   fun:readline
   fun:read_user_input
   fun:run_interactive_mode
   fun:main
}
{
   <insert_a_suppression_name_here>
   Memcheck:Leak
   match-leak-kinds: reachable
   fun:malloc
   fun:rl_initialize
   fun:readline
   fun:read_user_input
   fun:run_interactive_mode
   fun:main
}
{
   <insert_a_suppression_name_here>
   Memcheck:Leak
   match-leak-kinds: reachable
   fun:malloc
   fun:strdup
   fun:_nc_setupterm
   fun:tgetent_sp
   fun:_rl_init_terminal_io
   fun:rl_initialize
   fun:readline
   fun:read_user_input
   fun:run_interactive_mode
   fun:main
}
{
   <insert_a_suppression_name_here>
   Memcheck:Leak
   match-leak-kinds: reachable
   fun:realloc
   fun:_nc_doalloc
   fun:_nc_tiparm
   obj:/usr/lib/x86_64-linux-gnu/libtinfo.so.6.3
   fun:_nc_trim_sgr0
   fun:tgetent_sp
   fun:_rl_init_terminal_io
   fun:rl_initialize
   fun:readline
   fun:read_user_input
   fun:run_interactive_mode
   fun:main
}
{
   <insert_a_suppression_name_here>
   Memcheck:Leak
   match-leak-kinds: reachable
   fun:malloc
   fun:xmalloc
   obj:/usr/lib/x86_64-linux-gnu/libreadline.so.8.1
   fun:rl_initialize
   fun:readline
   fun:read_user_input
   fun:run_interactive_mode
   fun:main
}
{
   <insert_a_suppression_name_here>
   Memcheck:Leak
   match-leak-kinds: reachable
   fun:malloc
   fun:strdup
   obj:/usr/lib/x86_64-linux-gnu/libtinfo.so.6.3
   fun:_nc_first_db
   fun:_nc_read_entry2
   obj:/usr/lib/x86_64-linux-gnu/libtinfo.so.6.3
   fun:_nc_setupterm
   fun:tgetent_sp
   fun:_rl_init_terminal_io
   fun:rl_initialize
   fun:readline
   fun:read_user_input
}
{
   <insert_a_suppression_name_here>
   Memcheck:Leak
   match-leak-kinds: reachable
   fun:malloc
   fun:xmalloc
   obj:/usr/lib/x86_64-linux-gnu/libreadline.so.8.1
   fun:rl_expand_prompt
   fun:rl_set_prompt
   fun:readline
   fun:read_user_input
   fun:run_interactive_mode
   fun:main
}
{
   <insert_a_suppression_name_here>
   Memcheck:Leak
   match-leak-kinds: reachable
   fun:malloc
   fun:xmalloc
   fun:rl_set_prompt
   fun:readline
   fun:read_user_input
   fun:run_interactive_mode
   fun:main
}
{
   <insert_a_suppression_name_here>
   Memcheck:Leak
   match-leak-kinds: reachable
   fun:malloc
   fun:strdup
   fun:_nc_trim_sgr0
   fun:tgetent_sp
   fun:_rl_init_terminal_io
   fun:rl_initialize
   fun:readline
   fun:read_user_input
   fun:run_interactive_mode
   fun:main
}
{
   <insert_a_suppression_name_here>
   Memcheck:Leak
   match-leak-kinds: reachable
   fun:malloc
   fun:xrealloc
   obj:/usr/lib/x86_64-linux-gnu/libreadline.so.8.1
   fun:rl_expand_prompt
   fun:rl_set_prompt
   fun:readline
   fun:read_user_input
   fun:run_interactive_mode
   fun:main
}
{
   <insert_a_suppression_name_here>
   Memcheck:Leak
   match-leak-kinds: reachable
   fun:malloc
   fun:xmalloc
   fun:readline_internal_teardown
   fun:readline
   fun:read_user_input
   fun:run_interactive_mode
   fun:main
}
{
   <insert_a_suppression_name_here>
   Memcheck:Leak
   match-leak-kinds: reachable
   fun:realloc
   fun:xrealloc
   obj:/usr/lib/x86_64-linux-gnu/libreadline.so.8.1
   fun:rl_expand_prompt
   fun:rl_set_prompt
   fun:readline
   fun:read_user_input
   fun:run_interactive_mode
   fun:main
}
{
  readline_stuff
  Memcheck:Leak
  fun:malloc
  obj:/lib*/libreadline*.so*
}
{
   <insert_a_suppression_name_here>
   Memcheck:Leak
   match-leak-kinds: reachable
   fun:malloc
   fun:xmalloc
   fun:alloc_history_entry
   fun:add_history
   fun:read_user_input
   fun:run_interactive_mode
   fun:main
}
